---
triple:          'arm64-apple-darwin'
binary-path:     '/Users/lucacolussi/Uni/ProgettoPel23-24/tools/test.o'
relocations:
  - { offsetInCU: 0x4694, offset: 0x4694, size: 0x8, addend: 0x0, symName: __ZNSt3__14__fs10filesystem5beginB8ue170006ENS1_18directory_iteratorE, symObjAddr: 0x89C, symBinAddr: 0x100002D28, symSize: 0x38 }
  - { offsetInCU: 0x46C1, offset: 0x46C1, size: 0x8, addend: 0x0, symName: __ZNSt3__14__fs10filesystem3endB8ue170006ENS1_18directory_iteratorE, symObjAddr: 0x934, symBinAddr: 0x100002DC0, symSize: 0x34 }
  - { offsetInCU: 0x46EA, offset: 0x46EA, size: 0x8, addend: 0x0, symName: __ZNSt3__14__fs10filesystemneB8ue170006ERKNS1_18directory_iteratorES4_, symObjAddr: 0x968, symBinAddr: 0x100002DF4, symSize: 0x34 }
  - { offsetInCU: 0x4724, offset: 0x4724, size: 0x8, addend: 0x0, symName: __ZNSt3__14__fs10filesystemeqB8ue170006ERKNS1_18directory_iteratorES4_, symObjAddr: 0x9EC8, symBinAddr: 0x10000C354, symSize: 0x30 }
  - { offsetInCU: 0x475E, offset: 0x475E, size: 0x8, addend: 0x0, symName: __ZNSt3__14__fs10filesystem6existsB8ue170006ENS1_11file_statusE, symObjAddr: 0xA190, symBinAddr: 0x10000C61C, symSize: 0x78 }
  - { offsetInCU: 0x478B, offset: 0x478B, size: 0x8, addend: 0x0, symName: __ZNSt3__14__fs10filesystem12status_knownB8ue170006ENS1_11file_statusE, symObjAddr: 0xA2C0, symBinAddr: 0x10000C74C, symSize: 0x30 }
  - { offsetInCU: 0xEDF6, offset: 0xEDF6, size: 0x8, addend: 0x0, symName: __ZNSt3__17advanceB8ue170006IPKcllvEEvRT_T0_, symObjAddr: 0x10070, symBinAddr: 0x1000124FC, symSize: 0x38 }
  - { offsetInCU: 0xEE61, offset: 0xEE61, size: 0x8, addend: 0x0, symName: __ZNSt3__124__put_character_sequenceB8ue170006IcNS_11char_traitsIcEEEERNS_13basic_ostreamIT_T0_EES7_PKS4_m, symObjAddr: 0x101FC, symBinAddr: 0x100012688, symSize: 0x1EC }
  - { offsetInCU: 0xF9AC, offset: 0xF9AC, size: 0x8, addend: 0x0, symName: __ZNSt3__17advanceB8ue170006IPP4trieIcEllvEEvRT_T0_, symObjAddr: 0x1324C, symBinAddr: 0x1000156D8, symSize: 0x38 }
  - { offsetInCU: 0x119C3, offset: 0x119C3, size: 0x8, addend: 0x0, symName: __ZNSt3__16copy_nB8ue170006IPKcmPcEENS_9enable_ifIXsr37__has_random_access_iterator_categoryIT_EE5valueET1_E4typeES5_T0_S6_, symObjAddr: 0x19240, symBinAddr: 0x10001B6CC, symSize: 0x44 }
  - { offsetInCU: 0x11A4A, offset: 0x11A4A, size: 0x8, addend: 0x0, symName: __ZNSt3__111__introsortINS_17_ClassicAlgPolicyERZN3bagI4trieINS_12basic_stringIcNS_11char_traitsIcEENS_9allocatorIcEEEEEE7reorderEvEUlPKSA_SD_E_PPSA_Lb0EEEvT1_SI_T0_NS_15iterator_traitsISI_E15difference_typeEb, symObjAddr: 0x19538, symBinAddr: 0x10001B9C4, symSize: 0x440 }
  - { offsetInCU: 0x11B75, offset: 0x11B75, size: 0x8, addend: 0x0, symName: __ZNSt3__126__insertion_sort_unguardedB8ue170006INS_17_ClassicAlgPolicyERZN3bagI4trieINS_12basic_stringIcNS_11char_traitsIcEENS_9allocatorIcEEEEEE7reorderEvEUlPKSA_SD_E_PPSA_EEvT1_SI_T0_, symObjAddr: 0x19C50, symBinAddr: 0x10001C0DC, symSize: 0x12C }
  - { offsetInCU: 0x11C65, offset: 0x11C65, size: 0x8, addend: 0x0, symName: __ZNSt3__111__sift_downB8ue170006INS_17_ClassicAlgPolicyERZN3bagI4trieINS_12basic_stringIcNS_11char_traitsIcEENS_9allocatorIcEEEEEE7reorderEvEUlPKSA_SD_E_PPSA_EEvT1_OT0_NS_15iterator_traitsISI_E15difference_typeESI_, symObjAddr: 0x1AEC8, symBinAddr: 0x10001D354, symSize: 0x220 }
  - { offsetInCU: 0x11D12, offset: 0x11D12, size: 0x8, addend: 0x0, symName: __ZNSt3__117__floyd_sift_downB8ue170006INS_17_ClassicAlgPolicyERZN3bagI4trieINS_12basic_stringIcNS_11char_traitsIcEENS_9allocatorIcEEEEEE7reorderEvEUlPKSA_SD_E_PPSA_EET1_SI_OT0_NS_15iterator_traitsISI_E15difference_typeE, symObjAddr: 0x1B284, symBinAddr: 0x10001D710, symSize: 0x104 }
  - { offsetInCU: 0x11DAA, offset: 0x11DAA, size: 0x8, addend: 0x0, symName: __ZNSt3__131__partition_with_equals_on_leftB8ue170006INS_17_ClassicAlgPolicyEPP4trieINS_12basic_stringIcNS_11char_traitsIcEENS_9allocatorIcEEEEERZN3bagIS9_E7reorderEvEUlPKS9_SF_E_EET0_SI_SI_T1_, symObjAddr: 0x19FB0, symBinAddr: 0x10001C43C, symSize: 0x220 }
  - { offsetInCU: 0x11E65, offset: 0x11E65, size: 0x8, addend: 0x0, symName: __ZNSt3__118__bitset_partitionB8ue170006INS_17_ClassicAlgPolicyEPP4trieINS_12basic_stringIcNS_11char_traitsIcEENS_9allocatorIcEEEEERZN3bagIS9_E7reorderEvEUlPKS9_SF_E_EENS_4pairIT0_bEESJ_SJ_T1_, symObjAddr: 0x1A1D0, symBinAddr: 0x10001C65C, symSize: 0x330 }
  - { offsetInCU: 0x11F5E, offset: 0x11F5E, size: 0x8, addend: 0x0, symName: __ZNSt3__124__swap_bitmap_pos_withinB8ue170006INS_17_ClassicAlgPolicyEPP4trieINS_12basic_stringIcNS_11char_traitsIcEENS_9allocatorIcEEEEEEEvRT0_SD_RySE_, symObjAddr: 0x1BA00, symBinAddr: 0x10001DE8C, symSize: 0x1E0 }
  - { offsetInCU: 0x1202B, offset: 0x1202B, size: 0x8, addend: 0x0, symName: __ZNSt3__132__partition_with_equals_on_rightB8ue170006INS_17_ClassicAlgPolicyEPP4trieINS_12basic_stringIcNS_11char_traitsIcEENS_9allocatorIcEEEEERZN3bagIS9_E7reorderEvEUlPKS9_SF_E_EENS_4pairIT0_bEESJ_SJ_T1_, symObjAddr: 0x1A500, symBinAddr: 0x10001C98C, symSize: 0x230 }
  - { offsetInCU: 0x120F5, offset: 0x120F5, size: 0x8, addend: 0x0, symName: __ZNSt3__127__insertion_sort_incompleteB8ue170006INS_17_ClassicAlgPolicyERZN3bagI4trieINS_12basic_stringIcNS_11char_traitsIcEENS_9allocatorIcEEEEEE7reorderEvEUlPKSA_SD_E_PPSA_EEbT1_SI_T0_, symObjAddr: 0x1A730, symBinAddr: 0x10001CBBC, symSize: 0x318 }
  - { offsetInCU: 0x122B7, offset: 0x122B7, size: 0x8, addend: 0x0, symName: __ZNSt3__17advanceB8ue170006IPP4trieINS_12basic_stringIcNS_11char_traitsIcEENS_9allocatorIcEEEEEllvEEvRT_T0_, symObjAddr: 0x1C938, symBinAddr: 0x10001EDC4, symSize: 0x38 }
  - { offsetInCU: 0x142CE, offset: 0x142CE, size: 0x8, addend: 0x0, symName: __ZNSt3__111__introsortINS_17_ClassicAlgPolicyERZN3bagI4trieIiEE7reorderEvEUlPKS4_S7_E_PPS4_Lb0EEEvT1_SC_T0_NS_15iterator_traitsISC_E15difference_typeEb, symObjAddr: 0x21B2C, symBinAddr: 0x100023FB8, symSize: 0x440 }
  - { offsetInCU: 0x143F9, offset: 0x143F9, size: 0x8, addend: 0x0, symName: __ZNSt3__126__insertion_sort_unguardedB8ue170006INS_17_ClassicAlgPolicyERZN3bagI4trieIiEE7reorderEvEUlPKS4_S7_E_PPS4_EEvT1_SC_T0_, symObjAddr: 0x22230, symBinAddr: 0x1000246BC, symSize: 0x12C }
  - { offsetInCU: 0x144E9, offset: 0x144E9, size: 0x8, addend: 0x0, symName: __ZNSt3__111__sift_downB8ue170006INS_17_ClassicAlgPolicyERZN3bagI4trieIiEE7reorderEvEUlPKS4_S7_E_PPS4_EEvT1_OT0_NS_15iterator_traitsISC_E15difference_typeESC_, symObjAddr: 0x234A8, symBinAddr: 0x100025934, symSize: 0x220 }
  - { offsetInCU: 0x14596, offset: 0x14596, size: 0x8, addend: 0x0, symName: __ZNSt3__117__floyd_sift_downB8ue170006INS_17_ClassicAlgPolicyERZN3bagI4trieIiEE7reorderEvEUlPKS4_S7_E_PPS4_EET1_SC_OT0_NS_15iterator_traitsISC_E15difference_typeE, symObjAddr: 0x23864, symBinAddr: 0x100025CF0, symSize: 0x104 }
  - { offsetInCU: 0x1462E, offset: 0x1462E, size: 0x8, addend: 0x0, symName: __ZNSt3__131__partition_with_equals_on_leftB8ue170006INS_17_ClassicAlgPolicyEPP4trieIiERZN3bagIS3_E7reorderEvEUlPKS3_S9_E_EET0_SC_SC_T1_, symObjAddr: 0x22590, symBinAddr: 0x100024A1C, symSize: 0x220 }
  - { offsetInCU: 0x146E9, offset: 0x146E9, size: 0x8, addend: 0x0, symName: __ZNSt3__118__bitset_partitionB8ue170006INS_17_ClassicAlgPolicyEPP4trieIiERZN3bagIS3_E7reorderEvEUlPKS3_S9_E_EENS_4pairIT0_bEESD_SD_T1_, symObjAddr: 0x227B0, symBinAddr: 0x100024C3C, symSize: 0x330 }
  - { offsetInCU: 0x147E2, offset: 0x147E2, size: 0x8, addend: 0x0, symName: __ZNSt3__124__swap_bitmap_pos_withinB8ue170006INS_17_ClassicAlgPolicyEPP4trieIiEEEvRT0_S7_RyS8_, symObjAddr: 0x23FE0, symBinAddr: 0x10002646C, symSize: 0x1E0 }
  - { offsetInCU: 0x148AF, offset: 0x148AF, size: 0x8, addend: 0x0, symName: __ZNSt3__132__partition_with_equals_on_rightB8ue170006INS_17_ClassicAlgPolicyEPP4trieIiERZN3bagIS3_E7reorderEvEUlPKS3_S9_E_EENS_4pairIT0_bEESD_SD_T1_, symObjAddr: 0x22AE0, symBinAddr: 0x100024F6C, symSize: 0x230 }
  - { offsetInCU: 0x14979, offset: 0x14979, size: 0x8, addend: 0x0, symName: __ZNSt3__127__insertion_sort_incompleteB8ue170006INS_17_ClassicAlgPolicyERZN3bagI4trieIiEE7reorderEvEUlPKS4_S7_E_PPS4_EEbT1_SC_T0_, symObjAddr: 0x22D10, symBinAddr: 0x10002519C, symSize: 0x318 }
  - { offsetInCU: 0x14B3B, offset: 0x14B3B, size: 0x8, addend: 0x0, symName: __ZNSt3__17advanceB8ue170006IPP4trieIiEllvEEvRT_T0_, symObjAddr: 0x24EB0, symBinAddr: 0x10002733C, symSize: 0x38 }
  - { offsetInCU: 0x15B7F, offset: 0x15B7F, size: 0x8, addend: 0x0, symName: __ZNSt3__1rsB8ue170006IcNS_11char_traitsIcEEEERNS_13basic_istreamIT_T0_EES7_RS4_, symObjAddr: 0x35C, symBinAddr: 0x1000027E8, symSize: 0x190 }
  - { offsetInCU: 0x15C01, offset: 0x15C01, size: 0x8, addend: 0x0, symName: __ZNSt3__1plB8ue170006IcNS_11char_traitsIcEENS_9allocatorIcEEEENS_12basic_stringIT_T0_T1_EEOS9_PKS6_, symObjAddr: 0x1708, symBinAddr: 0x100003B94, symSize: 0x40 }
  - { offsetInCU: 0x15C59, offset: 0x15C59, size: 0x8, addend: 0x0, symName: __ZNSt3__1plB8ue170006IcNS_11char_traitsIcEENS_9allocatorIcEEEENS_12basic_stringIT_T0_T1_EEPKS6_OS9_, symObjAddr: 0x1870, symBinAddr: 0x100003CFC, symSize: 0x44 }
  - { offsetInCU: 0x15CB1, offset: 0x15CB1, size: 0x8, addend: 0x0, symName: __ZNSt3__1lsB8ue170006IcNS_11char_traitsIcEENS_9allocatorIcEEEERNS_13basic_ostreamIT_T0_EES9_RKNS_12basic_stringIS6_S7_T1_EE, symObjAddr: 0x296C, symBinAddr: 0x100004DF8, symSize: 0x4C }
  - { offsetInCU: 0x15D09, offset: 0x15D09, size: 0x8, addend: 0x0, symName: __ZNSt3__14endlB8ue170006IcNS_11char_traitsIcEEEERNS_13basic_ostreamIT_T0_EES7_, symObjAddr: 0x2A1C, symBinAddr: 0x100004EA8, symSize: 0x58 }
  - { offsetInCU: 0x15D49, offset: 0x15D49, size: 0x8, addend: 0x0, symName: __ZNSt3__1lsB8ue170006INS_11char_traitsIcEEEERNS_13basic_ostreamIcT_EES6_c, symObjAddr: 0x3098, symBinAddr: 0x100005524, symSize: 0x34 }
  - { offsetInCU: 0x15D8F, offset: 0x15D8F, size: 0x8, addend: 0x0, symName: __ZNSt3__134__libcpp_atomic_refcount_incrementB8ue170006IlEET_RS1_, symObjAddr: 0x9C64, symBinAddr: 0x10000C0F0, symSize: 0x30 }
  - { offsetInCU: 0x15DC4, offset: 0x15DC4, size: 0x8, addend: 0x0, symName: __ZNSt3__134__libcpp_atomic_refcount_decrementB8ue170006IlEET_RS1_, symObjAddr: 0x9DF8, symBinAddr: 0x10000C284, symSize: 0x30 }
  - { offsetInCU: 0x15DF9, offset: 0x15DF9, size: 0x8, addend: 0x0, symName: __ZNSt3__1eqB8ue170006INS_4__fs10filesystem12__dir_streamES3_EEbRKNS_10shared_ptrIT_EERKNS4_IT0_EE, symObjAddr: 0x9EF8, symBinAddr: 0x10000C384, symSize: 0x48 }
  - { offsetInCU: 0x15E48, offset: 0x15E48, size: 0x8, addend: 0x0, symName: __ZNSt3__115make_error_codeB8ue170006ENS_4errcE, symObjAddr: 0xA208, symBinAddr: 0x10000C694, symSize: 0x40 }
  - { offsetInCU: 0x15E74, offset: 0x15E74, size: 0x8, addend: 0x0, symName: __ZNSt3__120__libcpp_unreachableB8ue170006Ev, symObjAddr: 0xA27C, symBinAddr: 0x10000C708, symSize: 0x4 }
  - { offsetInCU: 0x15E8D, offset: 0x15E8D, size: 0x8, addend: 0x0, symName: __ZNSt3__112__to_addressB8ue170006IP4trieIcEEEPT_S5_, symObjAddr: 0xAA3C, symBinAddr: 0x10000CEC8, symSize: 0x14 }
  - { offsetInCU: 0x15EC2, offset: 0x15EC2, size: 0x8, addend: 0x0, symName: __ZNSt3__119__libcpp_deallocateB8ue170006EPvmm, symObjAddr: 0xAB14, symBinAddr: 0x10000CFA0, symSize: 0x60 }
  - { offsetInCU: 0x15F27, offset: 0x15F27, size: 0x8, addend: 0x0, symName: __ZNSt3__124__is_overaligned_for_newB8ue170006Em, symObjAddr: 0xAB74, symBinAddr: 0x10000D000, symSize: 0x20 }
  - { offsetInCU: 0x15F55, offset: 0x15F55, size: 0x8, addend: 0x0, symName: __ZNSt3__127__do_deallocate_handle_sizeB8ue170006IJSt11align_val_tEEEvPvmDpT_, symObjAddr: 0xAB94, symBinAddr: 0x10000D020, symSize: 0x30 }
  - { offsetInCU: 0x15FA8, offset: 0x15FA8, size: 0x8, addend: 0x0, symName: __ZNSt3__127__do_deallocate_handle_sizeB8ue170006IJEEEvPvmDpT_, symObjAddr: 0xABC4, symBinAddr: 0x10000D050, symSize: 0x28 }
  - { offsetInCU: 0x15FE6, offset: 0x15FE6, size: 0x8, addend: 0x0, symName: __ZNSt3__124__libcpp_operator_deleteB8ue170006IJPvSt11align_val_tEEEvDpT_, symObjAddr: 0xABEC, symBinAddr: 0x10000D078, symSize: 0x2C }
  - { offsetInCU: 0x1602F, offset: 0x1602F, size: 0x8, addend: 0x0, symName: __ZNSt3__124__libcpp_operator_deleteB8ue170006IJPvEEEvDpT_, symObjAddr: 0xAC18, symBinAddr: 0x10000D0A4, symSize: 0x24 }
  - { offsetInCU: 0x16064, offset: 0x16064, size: 0x8, addend: 0x0, symName: __ZNSt3__118__constexpr_strlenB8ue170006EPKc, symObjAddr: 0xB110, symBinAddr: 0x10000D59C, symSize: 0x24 }
  - { offsetInCU: 0x16626, offset: 0x16626, size: 0x8, addend: 0x0, symName: __ZNSt3__110__str_findB8ue170006IcmNS_11char_traitsIcEELm18446744073709551615EEET0_PKT_S3_S6_S3_S3_, symObjAddr: 0xB360, symBinAddr: 0x10000D7EC, symSize: 0xE4 }
  - { offsetInCU: 0x166CD, offset: 0x166CD, size: 0x8, addend: 0x0, symName: __ZNSt3__118__search_substringB8ue170006IcNS_11char_traitsIcEEEEPKT_S5_S5_S5_S5_, symObjAddr: 0xB4C0, symBinAddr: 0x10000D94C, symSize: 0x154 }
  - { offsetInCU: 0x16767, offset: 0x16767, size: 0x8, addend: 0x0, symName: __ZNSt3__118__constexpr_memchrB8ue170006IKccEEPT_S3_T0_m, symObjAddr: 0xB6B8, symBinAddr: 0x10000DB44, symSize: 0x40 }
  - { offsetInCU: 0x167DD, offset: 0x167DD, size: 0x8, addend: 0x0, symName: __ZNSt3__112__to_addressB8ue170006IKcEEPT_S3_, symObjAddr: 0xB6F8, symBinAddr: 0x10000DB84, symSize: 0x14 }
  - { offsetInCU: 0x16845, offset: 0x16845, size: 0x8, addend: 0x0, symName: __ZNSt3__1plB8ue170006IcNS_11char_traitsIcEENS_9allocatorIcEEEENS_12basic_stringIT_T0_T1_EEOS9_RKS9_, symObjAddr: 0xB890, symBinAddr: 0x10000DD1C, symSize: 0x40 }
  - { offsetInCU: 0x1710F, offset: 0x1710F, size: 0x8, addend: 0x0, symName: __ZNSt3__1eqB8ue170006IcNS_11char_traitsIcEENS_9allocatorIcEEEEbRKNS_12basic_stringIT_T0_T1_EEPKS6_, symObjAddr: 0xBF7C, symBinAddr: 0x10000E408, symSize: 0xAC }
  - { offsetInCU: 0x17176, offset: 0x17176, size: 0x8, addend: 0x0, symName: __ZNSt3__1neB8ue170006IcNS_11char_traitsIcEENS_9allocatorIcEEEEbRKNS_12basic_stringIT_T0_T1_EEPKS6_, symObjAddr: 0xC6C8, symBinAddr: 0x10000EB54, symSize: 0x34 }
  - { offsetInCU: 0x171CE, offset: 0x171CE, size: 0x8, addend: 0x0, symName: __ZNSt3__13maxB8ue170006ImEERKT_S3_S3_, symObjAddr: 0xD0D4, symBinAddr: 0x10000F560, symSize: 0x2C }
  - { offsetInCU: 0x17211, offset: 0x17211, size: 0x8, addend: 0x0, symName: __ZNSt3__13minB8ue170006ImEERKT_S3_S3_, symObjAddr: 0xD100, symBinAddr: 0x10000F58C, symSize: 0x2C }
  - { offsetInCU: 0x1743E, offset: 0x1743E, size: 0x8, addend: 0x0, symName: __ZNSt3__13minB8ue170006ImNS_6__lessIvvEEEERKT_S5_S5_T0_, symObjAddr: 0xD18C, symBinAddr: 0x10000F618, symSize: 0x54 }
  - { offsetInCU: 0x174DD, offset: 0x174DD, size: 0x8, addend: 0x0, symName: __ZNSt3__120__throw_length_errorB8ue170006EPKc, symObjAddr: 0xD268, symBinAddr: 0x10000F6F4, symSize: 0x64 }
  - { offsetInCU: 0x17507, offset: 0x17507, size: 0x8, addend: 0x0, symName: __ZNSt3__13maxB8ue170006ImNS_6__lessIvvEEEERKT_S5_S5_T0_, symObjAddr: 0xD34C, symBinAddr: 0x10000F7D8, symSize: 0x54 }
  - { offsetInCU: 0x17561, offset: 0x17561, size: 0x8, addend: 0x0, symName: __ZNSt3__119__allocate_at_leastB8ue170006INS_9allocatorIP4trieIcEEEEENS_19__allocation_resultINS_16allocator_traitsIT_E7pointerEEERS8_m, symObjAddr: 0xD4B0, symBinAddr: 0x10000F93C, symSize: 0x40 }
  - { offsetInCU: 0x175A4, offset: 0x175A4, size: 0x8, addend: 0x0, symName: __ZNSt3__117__libcpp_allocateB8ue170006Emm, symObjAddr: 0xD650, symBinAddr: 0x10000FADC, symSize: 0x60 }
  - { offsetInCU: 0x175FE, offset: 0x175FE, size: 0x8, addend: 0x0, symName: __ZNSt3__121__libcpp_operator_newB8ue170006IJmSt11align_val_tEEEPvDpT_, symObjAddr: 0xD6B0, symBinAddr: 0x10000FB3C, symSize: 0x2C }
  - { offsetInCU: 0x1764B, offset: 0x1764B, size: 0x8, addend: 0x0, symName: __ZNSt3__121__libcpp_operator_newB8ue170006IJmEEEPvDpT_, symObjAddr: 0xD6DC, symBinAddr: 0x10000FB68, symSize: 0x24 }
  - { offsetInCU: 0x17684, offset: 0x17684, size: 0x8, addend: 0x0, symName: __ZNSt3__142__uninitialized_allocator_move_if_noexceptB8ue170006INS_9allocatorIP4trieIcEEENS_16reverse_iteratorIPS4_EES8_S4_vEET1_RT_T0_SC_S9_, symObjAddr: 0xD764, symBinAddr: 0x10000FBF0, symSize: 0x78 }
  - { offsetInCU: 0x17701, offset: 0x17701, size: 0x8, addend: 0x0, symName: __ZNSt3__14swapB8ue170006IPP4trieIcEEENS_9enable_ifIXaasr21is_move_constructibleIT_EE5valuesr18is_move_assignableIS6_EE5valueEvE4typeERS6_S9_, symObjAddr: 0xD828, symBinAddr: 0x10000FCB4, symSize: 0x3C }
  - { offsetInCU: 0x17752, offset: 0x17752, size: 0x8, addend: 0x0, symName: __ZNSt3__14moveB8ue170006INS_16reverse_iteratorIPP4trieIcEEES6_EET0_T_S8_S7_, symObjAddr: 0xD910, symBinAddr: 0x10000FD9C, symSize: 0x78 }
  - { offsetInCU: 0x177AC, offset: 0x177AC, size: 0x8, addend: 0x0, symName: __ZNSt3__16__moveB8ue170006INS_17_ClassicAlgPolicyENS_16reverse_iteratorIPP4trieIcEEES7_S7_EENS_4pairIT0_T2_EES9_T1_SA_, symObjAddr: 0xD988, symBinAddr: 0x10000FE14, symSize: 0x64 }
  - { offsetInCU: 0x17818, offset: 0x17818, size: 0x8, addend: 0x0, symName: __ZNSt3__123__dispatch_copy_or_moveB8ue170006INS_17_ClassicAlgPolicyENS_11__move_loopIS1_EENS_14__move_trivialENS_16reverse_iteratorIPP4trieIcEEESA_SA_EENS_4pairIT2_T4_EESC_T3_SD_, symObjAddr: 0xD9EC, symBinAddr: 0x10000FE78, symSize: 0x64 }
  - { offsetInCU: 0x17896, offset: 0x17896, size: 0x8, addend: 0x0, symName: __ZNSt3__121__unwrap_and_dispatchB8ue170006INS_10__overloadINS_11__move_loopINS_17_ClassicAlgPolicyEEENS_14__move_trivialEEENS_16reverse_iteratorIPP4trieIcEEESC_SC_Li0EEENS_4pairIT0_T2_EESE_T1_SF_, symObjAddr: 0xDA50, symBinAddr: 0x10000FEDC, symSize: 0x12C }
  - { offsetInCU: 0x17926, offset: 0x17926, size: 0x8, addend: 0x0, symName: __ZNSt3__114__unwrap_rangeB8ue170006INS_16reverse_iteratorIPP4trieIcEEES6_EENS_4pairIT0_S8_EET_SA_, symObjAddr: 0xDB7C, symBinAddr: 0x100010008, symSize: 0x84 }
  - { offsetInCU: 0x17B1F, offset: 0x17B1F, size: 0x8, addend: 0x0, symName: __ZNSt3__113__unwrap_iterB8ue170006INS_16reverse_iteratorIPP4trieIcEEENS_18__unwrap_iter_implIS6_Lb0EEELi0EEEDTclsrT0_8__unwrapclsr3stdE7declvalIT_EEEESA_, symObjAddr: 0xDCA0, symBinAddr: 0x10001012C, symSize: 0x44 }
  - { offsetInCU: 0x17B63, offset: 0x17B63, size: 0x8, addend: 0x0, symName: __ZNSt3__19make_pairB8ue170006INS_16reverse_iteratorIPP4trieIcEEES6_EENS_4pairINS_18__unwrap_ref_decayIT_E4typeENS8_IT0_E4typeEEEOS9_OSC_, symObjAddr: 0xDCE4, symBinAddr: 0x100010170, symSize: 0x38 }
  - { offsetInCU: 0x17BB2, offset: 0x17BB2, size: 0x8, addend: 0x0, symName: __ZNSt3__114__rewrap_rangeB8ue170006INS_16reverse_iteratorIPP4trieIcEEES6_EET_S7_T0_, symObjAddr: 0xDD1C, symBinAddr: 0x1000101A8, symSize: 0x5C }
  - { offsetInCU: 0x17BFE, offset: 0x17BFE, size: 0x8, addend: 0x0, symName: __ZNSt3__113__rewrap_iterB8ue170006INS_16reverse_iteratorIPP4trieIcEEES6_NS_18__unwrap_iter_implIS6_Lb0EEEEET_S9_T0_, symObjAddr: 0xDD78, symBinAddr: 0x100010204, symSize: 0x74 }
  - { offsetInCU: 0x17C53, offset: 0x17C53, size: 0x8, addend: 0x0, symName: __ZNSt3__1neB8ue170006IPP4trieIcES4_EEbRKNS_16reverse_iteratorIT_EERKNS5_IT0_EE, symObjAddr: 0xDDEC, symBinAddr: 0x100010278, symSize: 0x48 }
  - { offsetInCU: 0x17F53, offset: 0x17F53, size: 0x8, addend: 0x0, symName: __ZNSt3__1neB8ue170006IPP4trieIcEEEbRKNS_11__wrap_iterIT_EES9_, symObjAddr: 0xE3E0, symBinAddr: 0x10001086C, symSize: 0x34 }
  - { offsetInCU: 0x17F96, offset: 0x17F96, size: 0x8, addend: 0x0, symName: __ZNSt3__1eqB8ue170006IPP4trieIcEEEbRKNS_11__wrap_iterIT_EES9_, symObjAddr: 0xE4D0, symBinAddr: 0x10001095C, symSize: 0x48 }
  - { offsetInCU: 0x17FD9, offset: 0x17FD9, size: 0x8, addend: 0x0, symName: __ZNSt3__122__make_exception_guardB8ue170006INS_6vectorIcNS_9allocatorIcEEE16__destroy_vectorEEENS_28__exception_guard_exceptionsIT_EES7_, symObjAddr: 0xE68C, symBinAddr: 0x100010B18, symSize: 0x40 }
  - { offsetInCU: 0x1800E, offset: 0x1800E, size: 0x8, addend: 0x0, symName: __ZNSt3__119__allocate_at_leastB8ue170006INS_9allocatorIcEEEENS_19__allocation_resultINS_16allocator_traitsIT_E7pointerEEERS5_m, symObjAddr: 0xEA20, symBinAddr: 0x100010EAC, symSize: 0x40 }
  - { offsetInCU: 0x18051, offset: 0x18051, size: 0x8, addend: 0x0, symName: __ZNSt3__112__to_addressB8ue170006IcEEPT_S2_, symObjAddr: 0xED3C, symBinAddr: 0x1000111C8, symSize: 0x14 }
  - { offsetInCU: 0x18086, offset: 0x18086, size: 0x8, addend: 0x0, symName: __ZNSt3__130__uninitialized_allocator_copyB8ue170006INS_9allocatorIcEEPKcS4_PcEET2_RT_T0_T1_S6_, symObjAddr: 0xEDEC, symBinAddr: 0x100011278, symSize: 0x80 }
  - { offsetInCU: 0x18123, offset: 0x18123, size: 0x8, addend: 0x0, symName: __ZNSt3__114__unwrap_rangeB8ue170006IPKcS2_EENS_4pairIT0_S4_EET_S6_, symObjAddr: 0xEEDC, symBinAddr: 0x100011368, symSize: 0x60 }
  - { offsetInCU: 0x1816F, offset: 0x1816F, size: 0x8, addend: 0x0, symName: __ZNSt3__135__uninitialized_allocator_copy_implB8ue170006INS_9allocatorIcEEKcccLPv0EEEPT2_RT_PT0_SA_S6_, symObjAddr: 0xEF3C, symBinAddr: 0x1000113C8, symSize: 0x38 }
  - { offsetInCU: 0x181F0, offset: 0x181F0, size: 0x8, addend: 0x0, symName: __ZNSt3__113__unwrap_iterB8ue170006IPcNS_18__unwrap_iter_implIS1_Lb1EEELi0EEEDTclsrT0_8__unwrapclsr3stdE7declvalIT_EEEES5_, symObjAddr: 0xEF74, symBinAddr: 0x100011400, symSize: 0x24 }
  - { offsetInCU: 0x18234, offset: 0x18234, size: 0x8, addend: 0x0, symName: __ZNSt3__113__rewrap_iterB8ue170006IPcS1_NS_18__unwrap_iter_implIS1_Lb1EEEEET_S4_T0_, symObjAddr: 0xEF98, symBinAddr: 0x100011424, symSize: 0x3C }
  - { offsetInCU: 0x18289, offset: 0x18289, size: 0x8, addend: 0x0, symName: __ZNSt3__19make_pairB8ue170006IPKcS2_EENS_4pairINS_18__unwrap_ref_decayIT_E4typeENS4_IT0_E4typeEEEOS5_OS8_, symObjAddr: 0xEFD4, symBinAddr: 0x100011460, symSize: 0x38 }
  - { offsetInCU: 0x182D8, offset: 0x182D8, size: 0x8, addend: 0x0, symName: __ZNSt3__113__unwrap_iterB8ue170006IPKcNS_18__unwrap_iter_implIS2_Lb1EEELi0EEEDTclsrT0_8__unwrapclsr3stdE7declvalIT_EEEES6_, symObjAddr: 0xF00C, symBinAddr: 0x100011498, symSize: 0x24 }
  - { offsetInCU: 0x18443, offset: 0x18443, size: 0x8, addend: 0x0, symName: __ZNSt3__14copyB8ue170006IPKcPcEET0_T_S5_S4_, symObjAddr: 0xF0C4, symBinAddr: 0x100011550, symSize: 0x40 }
  - { offsetInCU: 0x1849D, offset: 0x1849D, size: 0x8, addend: 0x0, symName: __ZNSt3__16__copyB8ue170006INS_17_ClassicAlgPolicyEPKcS3_PcEENS_4pairIT0_T2_EES6_T1_S7_, symObjAddr: 0xF104, symBinAddr: 0x100011590, symSize: 0x44 }
  - { offsetInCU: 0x18509, offset: 0x18509, size: 0x8, addend: 0x0, symName: __ZNSt3__123__dispatch_copy_or_moveB8ue170006INS_17_ClassicAlgPolicyENS_11__copy_loopIS1_EENS_14__copy_trivialEPKcS6_PcEENS_4pairIT2_T4_EES9_T3_SA_, symObjAddr: 0xF148, symBinAddr: 0x1000115D4, symSize: 0x44 }
  - { offsetInCU: 0x18587, offset: 0x18587, size: 0x8, addend: 0x0, symName: __ZNSt3__121__unwrap_and_dispatchB8ue170006INS_10__overloadINS_11__copy_loopINS_17_ClassicAlgPolicyEEENS_14__copy_trivialEEEPKcS8_PcLi0EEENS_4pairIT0_T2_EESB_T1_SC_, symObjAddr: 0xF18C, symBinAddr: 0x100011618, symSize: 0xB4 }
  - { offsetInCU: 0x18812, offset: 0x18812, size: 0x8, addend: 0x0, symName: __ZNSt3__19make_pairB8ue170006IPKcPcEENS_4pairINS_18__unwrap_ref_decayIT_E4typeENS5_IT0_E4typeEEEOS6_OS9_, symObjAddr: 0xF288, symBinAddr: 0x100011714, symSize: 0x38 }
  - { offsetInCU: 0x18861, offset: 0x18861, size: 0x8, addend: 0x0, symName: __ZNSt3__114__rewrap_rangeB8ue170006IPKcS2_EET_S3_T0_, symObjAddr: 0xF2C0, symBinAddr: 0x10001174C, symSize: 0x2C }
  - { offsetInCU: 0x188AD, offset: 0x188AD, size: 0x8, addend: 0x0, symName: __ZNSt3__119__copy_trivial_implB8ue170006IKccEENS_4pairIPT_PT0_EES4_S4_S6_, symObjAddr: 0xF2EC, symBinAddr: 0x100011778, symSize: 0x78 }
  - { offsetInCU: 0x18915, offset: 0x18915, size: 0x8, addend: 0x0, symName: __ZNSt3__119__constexpr_memmoveB8ue170006IcKcLi0EEEPT_S3_PT0_NS_15__element_countE, symObjAddr: 0xF364, symBinAddr: 0x1000117F0, symSize: 0x64 }
  - { offsetInCU: 0x18983, offset: 0x18983, size: 0x8, addend: 0x0, symName: __ZNSt3__19make_pairB8ue170006IRPKcPcEENS_4pairINS_18__unwrap_ref_decayIT_E4typeENS6_IT0_E4typeEEEOS7_OSA_, symObjAddr: 0xF3C8, symBinAddr: 0x100011854, symSize: 0x38 }
  - { offsetInCU: 0x189D2, offset: 0x189D2, size: 0x8, addend: 0x0, symName: __ZNSt3__113__rewrap_iterB8ue170006IPKcS2_NS_18__unwrap_iter_implIS2_Lb1EEEEET_S5_T0_, symObjAddr: 0xF4E0, symBinAddr: 0x10001196C, symSize: 0x3C }
  - { offsetInCU: 0x18A7A, offset: 0x18A7A, size: 0x8, addend: 0x0, symName: __ZNSt3__18distanceB8ue170006IPKcEENS_15iterator_traitsIT_E15difference_typeES4_S4_, symObjAddr: 0xFE7C, symBinAddr: 0x100012308, symSize: 0x2C }
  - { offsetInCU: 0x18ABD, offset: 0x18ABD, size: 0x8, addend: 0x0, symName: __ZNSt3__14nextB8ue170006IPKcEENS_9enable_ifIXsr29__has_input_iterator_categoryIT_EE5valueES4_E4typeES4_NS_15iterator_traitsIS4_E15difference_typeE, symObjAddr: 0xFEA8, symBinAddr: 0x100012334, symSize: 0x34 }
  - { offsetInCU: 0x18B00, offset: 0x18B00, size: 0x8, addend: 0x0, symName: __ZNSt3__121__convert_to_integralB8ue170006El, symObjAddr: 0x100A8, symBinAddr: 0x100012534, symSize: 0x14 }
  - { offsetInCU: 0x18B2C, offset: 0x18B2C, size: 0x8, addend: 0x0, symName: __ZNSt3__19__advanceB8ue170006IPKcEEvRT_NS_15iterator_traitsIS3_E15difference_typeENS_26random_access_iterator_tagE, symObjAddr: 0x100BC, symBinAddr: 0x100012548, symSize: 0x28 }
  - { offsetInCU: 0x18B75, offset: 0x18B75, size: 0x8, addend: 0x0, symName: __ZNSt3__110__distanceB8ue170006IPKcEENS_15iterator_traitsIT_E15difference_typeES4_S4_NS_26random_access_iterator_tagE, symObjAddr: 0x101DC, symBinAddr: 0x100012668, symSize: 0x20 }
  - { offsetInCU: 0x18BC2, offset: 0x18BC2, size: 0x8, addend: 0x0, symName: __ZNSt3__116__pad_and_outputB8ue170006IcNS_11char_traitsIcEEEENS_19ostreambuf_iteratorIT_T0_EES6_PKS4_S8_S8_RNS_8ios_baseES4_, symObjAddr: 0x10404, symBinAddr: 0x100012890, symSize: 0x240 }
  - { offsetInCU: 0x18CC4, offset: 0x18CC4, size: 0x8, addend: 0x0, symName: __ZNSt3__19use_facetB8ue170006INS_5ctypeIcEEEERKT_RKNS_6localeE, symObjAddr: 0x109D8, symBinAddr: 0x100012E64, symSize: 0x2C }
  - { offsetInCU: 0x190BE, offset: 0x190BE, size: 0x8, addend: 0x0, symName: __ZNSt3__1miB8ue170006IPKP4trieIcEPS3_EEDTmicldtfp_4baseEcldtfp0_4baseEERKNS_11__wrap_iterIT_EERKNS8_IT0_EE, symObjAddr: 0x110FC, symBinAddr: 0x100013588, symSize: 0x48 }
  - { offsetInCU: 0x1913D, offset: 0x1913D, size: 0x8, addend: 0x0, symName: __ZNSt3__113move_backwardB8ue170006IPP4trieIcES4_EET0_T_S6_S5_, symObjAddr: 0x1167C, symBinAddr: 0x100013B08, symSize: 0x40 }
  - { offsetInCU: 0x19197, offset: 0x19197, size: 0x8, addend: 0x0, symName: __ZNSt3__115__move_backwardB8ue170006INS_17_ClassicAlgPolicyEPP4trieIcES5_S5_EENS_4pairIT0_T2_EES7_T1_S8_, symObjAddr: 0x116E4, symBinAddr: 0x100013B70, symSize: 0x44 }
  - { offsetInCU: 0x19203, offset: 0x19203, size: 0x8, addend: 0x0, symName: __ZNSt3__123__dispatch_copy_or_moveB8ue170006INS_17_ClassicAlgPolicyENS_20__move_backward_loopIS1_EENS_23__move_backward_trivialEPP4trieIcES8_S8_EENS_4pairIT2_T4_EESA_T3_SB_, symObjAddr: 0x11728, symBinAddr: 0x100013BB4, symSize: 0x44 }
  - { offsetInCU: 0x19281, offset: 0x19281, size: 0x8, addend: 0x0, symName: __ZNSt3__121__unwrap_and_dispatchB8ue170006INS_10__overloadINS_20__move_backward_loopINS_17_ClassicAlgPolicyEEENS_23__move_backward_trivialEEEPP4trieIcESA_SA_Li0EEENS_4pairIT0_T2_EESC_T1_SD_, symObjAddr: 0x1176C, symBinAddr: 0x100013BF8, symSize: 0xB4 }
  - { offsetInCU: 0x1930F, offset: 0x1930F, size: 0x8, addend: 0x0, symName: __ZNSt3__114__unwrap_rangeB8ue170006IPP4trieIcES4_EENS_4pairIT0_S6_EET_S8_, symObjAddr: 0x11820, symBinAddr: 0x100013CAC, symSize: 0x60 }
  - { offsetInCU: 0x1954B, offset: 0x1954B, size: 0x8, addend: 0x0, symName: __ZNSt3__113__unwrap_iterB8ue170006IPP4trieIcENS_18__unwrap_iter_implIS4_Lb1EEELi0EEEDTclsrT0_8__unwrapclsr3stdE7declvalIT_EEEES8_, symObjAddr: 0x118C8, symBinAddr: 0x100013D54, symSize: 0x24 }
  - { offsetInCU: 0x1958F, offset: 0x1958F, size: 0x8, addend: 0x0, symName: __ZNSt3__19make_pairB8ue170006IPP4trieIcES4_EENS_4pairINS_18__unwrap_ref_decayIT_E4typeENS6_IT0_E4typeEEEOS7_OSA_, symObjAddr: 0x118EC, symBinAddr: 0x100013D78, symSize: 0x38 }
  - { offsetInCU: 0x195DE, offset: 0x195DE, size: 0x8, addend: 0x0, symName: __ZNSt3__114__rewrap_rangeB8ue170006IPP4trieIcES4_EET_S5_T0_, symObjAddr: 0x11924, symBinAddr: 0x100013DB0, symSize: 0x2C }
  - { offsetInCU: 0x1962A, offset: 0x1962A, size: 0x8, addend: 0x0, symName: __ZNSt3__113__rewrap_iterB8ue170006IPP4trieIcES4_NS_18__unwrap_iter_implIS4_Lb1EEEEET_S7_T0_, symObjAddr: 0x11950, symBinAddr: 0x100013DDC, symSize: 0x3C }
  - { offsetInCU: 0x1967F, offset: 0x1967F, size: 0x8, addend: 0x0, symName: __ZNSt3__128__copy_backward_trivial_implB8ue170006IP4trieIcES3_EENS_4pairIPT_PT0_EES6_S6_S8_, symObjAddr: 0x1198C, symBinAddr: 0x100013E18, symSize: 0x90 }
  - { offsetInCU: 0x196E7, offset: 0x196E7, size: 0x8, addend: 0x0, symName: __ZNSt3__119__constexpr_memmoveB8ue170006IP4trieIcES3_Li0EEEPT_S5_PT0_NS_15__element_countE, symObjAddr: 0x11A1C, symBinAddr: 0x100013EA8, symSize: 0x64 }
  - { offsetInCU: 0x19755, offset: 0x19755, size: 0x8, addend: 0x0, symName: __ZNSt3__19make_pairB8ue170006IRPP4trieIcES5_EENS_4pairINS_18__unwrap_ref_decayIT_E4typeENS7_IT0_E4typeEEEOS8_OSB_, symObjAddr: 0x11A80, symBinAddr: 0x100013F0C, symSize: 0x38 }
  - { offsetInCU: 0x197F7, offset: 0x197F7, size: 0x8, addend: 0x0, symName: __ZNSt3__14moveB8ue170006IPP4trieIcES4_EET0_T_S6_S5_, symObjAddr: 0x11C0C, symBinAddr: 0x100014098, symSize: 0x40 }
  - { offsetInCU: 0x19851, offset: 0x19851, size: 0x8, addend: 0x0, symName: __ZNSt3__16__moveB8ue170006INS_17_ClassicAlgPolicyEPP4trieIcES5_S5_EENS_4pairIT0_T2_EES7_T1_S8_, symObjAddr: 0x11CE0, symBinAddr: 0x10001416C, symSize: 0x44 }
  - { offsetInCU: 0x198BD, offset: 0x198BD, size: 0x8, addend: 0x0, symName: __ZNSt3__123__dispatch_copy_or_moveB8ue170006INS_17_ClassicAlgPolicyENS_11__move_loopIS1_EENS_14__move_trivialEPP4trieIcES8_S8_EENS_4pairIT2_T4_EESA_T3_SB_, symObjAddr: 0x11D24, symBinAddr: 0x1000141B0, symSize: 0x44 }
  - { offsetInCU: 0x1993B, offset: 0x1993B, size: 0x8, addend: 0x0, symName: __ZNSt3__121__unwrap_and_dispatchB8ue170006INS_10__overloadINS_11__move_loopINS_17_ClassicAlgPolicyEEENS_14__move_trivialEEEPP4trieIcESA_SA_Li0EEENS_4pairIT0_T2_EESC_T1_SD_, symObjAddr: 0x11D68, symBinAddr: 0x1000141F4, symSize: 0xB4 }
  - { offsetInCU: 0x19A87, offset: 0x19A87, size: 0x8, addend: 0x0, symName: __ZNSt3__119__copy_trivial_implB8ue170006IP4trieIcES3_EENS_4pairIPT_PT0_EES6_S6_S8_, symObjAddr: 0x11E64, symBinAddr: 0x1000142F0, symSize: 0x80 }
  - { offsetInCU: 0x19AEF, offset: 0x19AEF, size: 0x8, addend: 0x0, symName: __ZNSt3__19make_pairB8ue170006IRPP4trieIcES4_EENS_4pairINS_18__unwrap_ref_decayIT_E4typeENS7_IT0_E4typeEEEOS8_OSB_, symObjAddr: 0x11EE4, symBinAddr: 0x100014370, symSize: 0x38 }
  - { offsetInCU: 0x19B3E, offset: 0x19B3E, size: 0x8, addend: 0x0, symName: __ZNSt3__18distanceB8ue170006INS_13move_iteratorIPP4trieIcEEEEENS_15iterator_traitsIT_E15difference_typeES8_S8_, symObjAddr: 0x12068, symBinAddr: 0x1000144F4, symSize: 0x3C }
  - { offsetInCU: 0x19B81, offset: 0x19B81, size: 0x8, addend: 0x0, symName: __ZNSt3__110__distanceB8ue170006INS_13move_iteratorIPP4trieIcEEEEENS_15iterator_traitsIT_E15difference_typeES8_S8_NS_26random_access_iterator_tagE, symObjAddr: 0x121A8, symBinAddr: 0x100014634, symSize: 0x30 }
  - { offsetInCU: 0x19BCE, offset: 0x19BCE, size: 0x8, addend: 0x0, symName: __ZNSt3__1miB8ue170006IPP4trieIcES4_EEDTmicldtfp_4baseEcldtfp0_4baseEERKNS_13move_iteratorIT_EERKNS6_IT0_EE, symObjAddr: 0x121D8, symBinAddr: 0x100014664, symSize: 0x48 }
  - { offsetInCU: 0x19C1D, offset: 0x19C1D, size: 0x8, addend: 0x0, symName: __ZNSt3__142__uninitialized_allocator_move_if_noexceptB8ue170006INS_9allocatorIP4trieIcEEEPS4_S6_S4_vEET1_RT_T0_SA_S7_, symObjAddr: 0x12258, symBinAddr: 0x1000146E4, symSize: 0x38 }
  - { offsetInCU: 0x19C99, offset: 0x19C99, size: 0x8, addend: 0x0, symName: __ZNSt3__122__make_exception_guardB8ue170006INS_6vectorIP4trieIcENS_9allocatorIS4_EEE16__destroy_vectorEEENS_28__exception_guard_exceptionsIT_EESA_, symObjAddr: 0x129DC, symBinAddr: 0x100014E68, symSize: 0x40 }
  - { offsetInCU: 0x19CCE, offset: 0x19CCE, size: 0x8, addend: 0x0, symName: __ZNSt3__130__uninitialized_allocator_copyB8ue170006INS_9allocatorIP4trieIcEEEPS4_S6_S6_EET2_RT_T0_T1_S7_, symObjAddr: 0x12BF4, symBinAddr: 0x100015080, symSize: 0x80 }
  - { offsetInCU: 0x19D6B, offset: 0x19D6B, size: 0x8, addend: 0x0, symName: __ZNSt3__135__uninitialized_allocator_copy_implB8ue170006INS_9allocatorIP4trieIcEEES4_S4_S4_LPv0EEEPT2_RT_PT0_SC_S8_, symObjAddr: 0x12C74, symBinAddr: 0x100015100, symSize: 0x38 }
  - { offsetInCU: 0x19DEC, offset: 0x19DEC, size: 0x8, addend: 0x0, symName: __ZNSt3__14copyB8ue170006IPP4trieIcES4_EET0_T_S6_S5_, symObjAddr: 0x12CAC, symBinAddr: 0x100015138, symSize: 0x40 }
  - { offsetInCU: 0x19E46, offset: 0x19E46, size: 0x8, addend: 0x0, symName: __ZNSt3__16__copyB8ue170006INS_17_ClassicAlgPolicyEPP4trieIcES5_S5_EENS_4pairIT0_T2_EES7_T1_S8_, symObjAddr: 0x12CEC, symBinAddr: 0x100015178, symSize: 0x44 }
  - { offsetInCU: 0x19EB2, offset: 0x19EB2, size: 0x8, addend: 0x0, symName: __ZNSt3__123__dispatch_copy_or_moveB8ue170006INS_17_ClassicAlgPolicyENS_11__copy_loopIS1_EENS_14__copy_trivialEPP4trieIcES8_S8_EENS_4pairIT2_T4_EESA_T3_SB_, symObjAddr: 0x12D30, symBinAddr: 0x1000151BC, symSize: 0x44 }
  - { offsetInCU: 0x19F30, offset: 0x19F30, size: 0x8, addend: 0x0, symName: __ZNSt3__121__unwrap_and_dispatchB8ue170006INS_10__overloadINS_11__copy_loopINS_17_ClassicAlgPolicyEEENS_14__copy_trivialEEEPP4trieIcESA_SA_Li0EEENS_4pairIT0_T2_EESC_T1_SD_, symObjAddr: 0x12D74, symBinAddr: 0x100015200, symSize: 0xB4 }
  - { offsetInCU: 0x19FBE, offset: 0x19FBE, size: 0x8, addend: 0x0, symName: __ZNSt3__18distanceB8ue170006IPP4trieIcEEENS_15iterator_traitsIT_E15difference_typeES6_S6_, symObjAddr: 0x131A0, symBinAddr: 0x10001562C, symSize: 0x2C }
  - { offsetInCU: 0x1A001, offset: 0x1A001, size: 0x8, addend: 0x0, symName: __ZNSt3__14nextB8ue170006IPP4trieIcEEENS_9enable_ifIXsr29__has_input_iterator_categoryIT_EE5valueES6_E4typeES6_NS_15iterator_traitsIS6_E15difference_typeE, symObjAddr: 0x131CC, symBinAddr: 0x100015658, symSize: 0x34 }
  - { offsetInCU: 0x1A044, offset: 0x1A044, size: 0x8, addend: 0x0, symName: __ZNSt3__19__advanceB8ue170006IPP4trieIcEEEvRT_NS_15iterator_traitsIS5_E15difference_typeENS_26random_access_iterator_tagE, symObjAddr: 0x13284, symBinAddr: 0x100015710, symSize: 0x28 }
  - { offsetInCU: 0x1A08D, offset: 0x1A08D, size: 0x8, addend: 0x0, symName: __ZNSt3__110__distanceB8ue170006IPP4trieIcEEENS_15iterator_traitsIT_E15difference_typeES6_S6_NS_26random_access_iterator_tagE, symObjAddr: 0x132AC, symBinAddr: 0x100015738, symSize: 0x28 }
  - { offsetInCU: 0x1A0DA, offset: 0x1A0DA, size: 0x8, addend: 0x0, symName: __ZNSt3__1rsB8ue170006IcNS_11char_traitsIcEENS_9allocatorIcEEEERNS_13basic_istreamIT_T0_EES9_RNS_12basic_stringIS6_S7_T1_EE, symObjAddr: 0x14368, symBinAddr: 0x1000167F4, symSize: 0x308 }
  - { offsetInCU: 0x1A393, offset: 0x1A393, size: 0x8, addend: 0x0, symName: __ZNSt3__1eqB8ue170006INS_9allocatorIcEEEEbRKNS_12basic_stringIcNS_11char_traitsIcEET_EES9_, symObjAddr: 0x15010, symBinAddr: 0x10001749C, symSize: 0x148 }
  - { offsetInCU: 0x1A406, offset: 0x1A406, size: 0x8, addend: 0x0, symName: __ZNSt3__1ltB8ue170006IcNS_11char_traitsIcEENS_9allocatorIcEEEEbRKNS_12basic_stringIT_T0_T1_EESB_, symObjAddr: 0x15234, symBinAddr: 0x1000176C0, symSize: 0x38 }
  - { offsetInCU: 0x1A45E, offset: 0x1A45E, size: 0x8, addend: 0x0, symName: __ZNSt3__112__to_addressB8ue170006IP4trieINS_12basic_stringIcNS_11char_traitsIcEENS_9allocatorIcEEEEEEEPT_SB_, symObjAddr: 0x15A5C, symBinAddr: 0x100017EE8, symSize: 0x14 }
  - { offsetInCU: 0x1A493, offset: 0x1A493, size: 0x8, addend: 0x0, symName: __ZNSt3__1neB8ue170006IPP4trieINS_12basic_stringIcNS_11char_traitsIcEENS_9allocatorIcEEEEEEEbRKNS_11__wrap_iterIT_EESF_, symObjAddr: 0x15C90, symBinAddr: 0x10001811C, symSize: 0x34 }
  - { offsetInCU: 0x1A4D6, offset: 0x1A4D6, size: 0x8, addend: 0x0, symName: __ZNSt3__1eqB8ue170006IPP4trieINS_12basic_stringIcNS_11char_traitsIcEENS_9allocatorIcEEEEEEEbRKNS_11__wrap_iterIT_EESF_, symObjAddr: 0x15DAC, symBinAddr: 0x100018238, symSize: 0x48 }
  - { offsetInCU: 0x1A519, offset: 0x1A519, size: 0x8, addend: 0x0, symName: __ZNSt3__119__allocate_at_leastB8ue170006INS_9allocatorIP4trieINS_12basic_stringIcNS_11char_traitsIcEENS1_IcEEEEEEEEENS_19__allocation_resultINS_16allocator_traitsIT_E7pointerEEERSD_m, symObjAddr: 0x167A8, symBinAddr: 0x100018C34, symSize: 0x40 }
  - { offsetInCU: 0x1A55C, offset: 0x1A55C, size: 0x8, addend: 0x0, symName: __ZNSt3__142__uninitialized_allocator_move_if_noexceptB8ue170006INS_9allocatorIP4trieINS_12basic_stringIcNS_11char_traitsIcEENS1_IcEEEEEEENS_16reverse_iteratorIPS9_EESD_S9_vEET1_RT_T0_SH_SE_, symObjAddr: 0x1695C, symBinAddr: 0x100018DE8, symSize: 0x78 }
  - { offsetInCU: 0x1A5D9, offset: 0x1A5D9, size: 0x8, addend: 0x0, symName: __ZNSt3__14swapB8ue170006IPP4trieINS_12basic_stringIcNS_11char_traitsIcEENS_9allocatorIcEEEEEEENS_9enable_ifIXaasr21is_move_constructibleIT_EE5valuesr18is_move_assignableISC_EE5valueEvE4typeERSC_SF_, symObjAddr: 0x16A20, symBinAddr: 0x100018EAC, symSize: 0x3C }
  - { offsetInCU: 0x1A62A, offset: 0x1A62A, size: 0x8, addend: 0x0, symName: __ZNSt3__14moveB8ue170006INS_16reverse_iteratorIPP4trieINS_12basic_stringIcNS_11char_traitsIcEENS_9allocatorIcEEEEEEESC_EET0_T_SE_SD_, symObjAddr: 0x16B08, symBinAddr: 0x100018F94, symSize: 0x78 }
  - { offsetInCU: 0x1A684, offset: 0x1A684, size: 0x8, addend: 0x0, symName: __ZNSt3__16__moveB8ue170006INS_17_ClassicAlgPolicyENS_16reverse_iteratorIPP4trieINS_12basic_stringIcNS_11char_traitsIcEENS_9allocatorIcEEEEEEESD_SD_EENS_4pairIT0_T2_EESF_T1_SG_, symObjAddr: 0x16B80, symBinAddr: 0x10001900C, symSize: 0x64 }
  - { offsetInCU: 0x1A6F0, offset: 0x1A6F0, size: 0x8, addend: 0x0, symName: __ZNSt3__123__dispatch_copy_or_moveB8ue170006INS_17_ClassicAlgPolicyENS_11__move_loopIS1_EENS_14__move_trivialENS_16reverse_iteratorIPP4trieINS_12basic_stringIcNS_11char_traitsIcEENS_9allocatorIcEEEEEEESG_SG_EENS_4pairIT2_T4_EESI_T3_SJ_, symObjAddr: 0x16BE4, symBinAddr: 0x100019070, symSize: 0x64 }
  - { offsetInCU: 0x1A76E, offset: 0x1A76E, size: 0x8, addend: 0x0, symName: __ZNSt3__121__unwrap_and_dispatchB8ue170006INS_10__overloadINS_11__move_loopINS_17_ClassicAlgPolicyEEENS_14__move_trivialEEENS_16reverse_iteratorIPP4trieINS_12basic_stringIcNS_11char_traitsIcEENS_9allocatorIcEEEEEEESI_SI_Li0EEENS_4pairIT0_T2_EESK_T1_SL_, symObjAddr: 0x16C48, symBinAddr: 0x1000190D4, symSize: 0x12C }
  - { offsetInCU: 0x1A7FE, offset: 0x1A7FE, size: 0x8, addend: 0x0, symName: __ZNSt3__114__unwrap_rangeB8ue170006INS_16reverse_iteratorIPP4trieINS_12basic_stringIcNS_11char_traitsIcEENS_9allocatorIcEEEEEEESC_EENS_4pairIT0_SE_EET_SG_, symObjAddr: 0x16D74, symBinAddr: 0x100019200, symSize: 0x84 }
  - { offsetInCU: 0x1A91E, offset: 0x1A91E, size: 0x8, addend: 0x0, symName: __ZNSt3__113__unwrap_iterB8ue170006INS_16reverse_iteratorIPP4trieINS_12basic_stringIcNS_11char_traitsIcEENS_9allocatorIcEEEEEEENS_18__unwrap_iter_implISC_Lb0EEELi0EEEDTclsrT0_8__unwrapclsr3stdE7declvalIT_EEEESG_, symObjAddr: 0x16E98, symBinAddr: 0x100019324, symSize: 0x44 }
  - { offsetInCU: 0x1A962, offset: 0x1A962, size: 0x8, addend: 0x0, symName: __ZNSt3__19make_pairB8ue170006INS_16reverse_iteratorIPP4trieINS_12basic_stringIcNS_11char_traitsIcEENS_9allocatorIcEEEEEEESC_EENS_4pairINS_18__unwrap_ref_decayIT_E4typeENSE_IT0_E4typeEEEOSF_OSI_, symObjAddr: 0x16EDC, symBinAddr: 0x100019368, symSize: 0x38 }
  - { offsetInCU: 0x1A9B1, offset: 0x1A9B1, size: 0x8, addend: 0x0, symName: __ZNSt3__114__rewrap_rangeB8ue170006INS_16reverse_iteratorIPP4trieINS_12basic_stringIcNS_11char_traitsIcEENS_9allocatorIcEEEEEEESC_EET_SD_T0_, symObjAddr: 0x16F14, symBinAddr: 0x1000193A0, symSize: 0x5C }
  - { offsetInCU: 0x1A9FD, offset: 0x1A9FD, size: 0x8, addend: 0x0, symName: __ZNSt3__113__rewrap_iterB8ue170006INS_16reverse_iteratorIPP4trieINS_12basic_stringIcNS_11char_traitsIcEENS_9allocatorIcEEEEEEESC_NS_18__unwrap_iter_implISC_Lb0EEEEET_SF_T0_, symObjAddr: 0x16F70, symBinAddr: 0x1000193FC, symSize: 0x74 }
  - { offsetInCU: 0x1AA52, offset: 0x1AA52, size: 0x8, addend: 0x0, symName: __ZNSt3__1neB8ue170006IPP4trieINS_12basic_stringIcNS_11char_traitsIcEENS_9allocatorIcEEEEESA_EEbRKNS_16reverse_iteratorIT_EERKNSB_IT0_EE, symObjAddr: 0x16FE4, symBinAddr: 0x100019470, symSize: 0x48 }
  - { offsetInCU: 0x1AB0A, offset: 0x1AB0A, size: 0x8, addend: 0x0, symName: __ZNSt3__1miB8ue170006IPKP4trieINS_12basic_stringIcNS_11char_traitsIcEENS_9allocatorIcEEEEEPS9_EEDTmicldtfp_4baseEcldtfp0_4baseEERKNS_11__wrap_iterIT_EERKNSE_IT0_EE, symObjAddr: 0x175A4, symBinAddr: 0x100019A30, symSize: 0x48 }
  - { offsetInCU: 0x1AB89, offset: 0x1AB89, size: 0x8, addend: 0x0, symName: __ZNSt3__113move_backwardB8ue170006IPP4trieINS_12basic_stringIcNS_11char_traitsIcEENS_9allocatorIcEEEEESA_EET0_T_SC_SB_, symObjAddr: 0x17B24, symBinAddr: 0x100019FB0, symSize: 0x40 }
  - { offsetInCU: 0x1ABE3, offset: 0x1ABE3, size: 0x8, addend: 0x0, symName: __ZNSt3__115__move_backwardB8ue170006INS_17_ClassicAlgPolicyEPP4trieINS_12basic_stringIcNS_11char_traitsIcEENS_9allocatorIcEEEEESB_SB_EENS_4pairIT0_T2_EESD_T1_SE_, symObjAddr: 0x17B8C, symBinAddr: 0x10001A018, symSize: 0x44 }
  - { offsetInCU: 0x1AC4F, offset: 0x1AC4F, size: 0x8, addend: 0x0, symName: __ZNSt3__123__dispatch_copy_or_moveB8ue170006INS_17_ClassicAlgPolicyENS_20__move_backward_loopIS1_EENS_23__move_backward_trivialEPP4trieINS_12basic_stringIcNS_11char_traitsIcEENS_9allocatorIcEEEEESE_SE_EENS_4pairIT2_T4_EESG_T3_SH_, symObjAddr: 0x17BD0, symBinAddr: 0x10001A05C, symSize: 0x44 }
  - { offsetInCU: 0x1ACCD, offset: 0x1ACCD, size: 0x8, addend: 0x0, symName: __ZNSt3__121__unwrap_and_dispatchB8ue170006INS_10__overloadINS_20__move_backward_loopINS_17_ClassicAlgPolicyEEENS_23__move_backward_trivialEEEPP4trieINS_12basic_stringIcNS_11char_traitsIcEENS_9allocatorIcEEEEESG_SG_Li0EEENS_4pairIT0_T2_EESI_T1_SJ_, symObjAddr: 0x17C14, symBinAddr: 0x10001A0A0, symSize: 0xB4 }
  - { offsetInCU: 0x1AD5B, offset: 0x1AD5B, size: 0x8, addend: 0x0, symName: __ZNSt3__114__unwrap_rangeB8ue170006IPP4trieINS_12basic_stringIcNS_11char_traitsIcEENS_9allocatorIcEEEEESA_EENS_4pairIT0_SC_EET_SE_, symObjAddr: 0x17CC8, symBinAddr: 0x10001A154, symSize: 0x60 }
  - { offsetInCU: 0x1AED9, offset: 0x1AED9, size: 0x8, addend: 0x0, symName: __ZNSt3__113__unwrap_iterB8ue170006IPP4trieINS_12basic_stringIcNS_11char_traitsIcEENS_9allocatorIcEEEEENS_18__unwrap_iter_implISA_Lb1EEELi0EEEDTclsrT0_8__unwrapclsr3stdE7declvalIT_EEEESE_, symObjAddr: 0x17D70, symBinAddr: 0x10001A1FC, symSize: 0x24 }
  - { offsetInCU: 0x1AF1D, offset: 0x1AF1D, size: 0x8, addend: 0x0, symName: __ZNSt3__19make_pairB8ue170006IPP4trieINS_12basic_stringIcNS_11char_traitsIcEENS_9allocatorIcEEEEESA_EENS_4pairINS_18__unwrap_ref_decayIT_E4typeENSC_IT0_E4typeEEEOSD_OSG_, symObjAddr: 0x17D94, symBinAddr: 0x10001A220, symSize: 0x38 }
  - { offsetInCU: 0x1AF6C, offset: 0x1AF6C, size: 0x8, addend: 0x0, symName: __ZNSt3__114__rewrap_rangeB8ue170006IPP4trieINS_12basic_stringIcNS_11char_traitsIcEENS_9allocatorIcEEEEESA_EET_SB_T0_, symObjAddr: 0x17DCC, symBinAddr: 0x10001A258, symSize: 0x2C }
  - { offsetInCU: 0x1AFB8, offset: 0x1AFB8, size: 0x8, addend: 0x0, symName: __ZNSt3__113__rewrap_iterB8ue170006IPP4trieINS_12basic_stringIcNS_11char_traitsIcEENS_9allocatorIcEEEEESA_NS_18__unwrap_iter_implISA_Lb1EEEEET_SD_T0_, symObjAddr: 0x17DF8, symBinAddr: 0x10001A284, symSize: 0x3C }
  - { offsetInCU: 0x1B00D, offset: 0x1B00D, size: 0x8, addend: 0x0, symName: __ZNSt3__128__copy_backward_trivial_implB8ue170006IP4trieINS_12basic_stringIcNS_11char_traitsIcEENS_9allocatorIcEEEEES9_EENS_4pairIPT_PT0_EESC_SC_SE_, symObjAddr: 0x17E34, symBinAddr: 0x10001A2C0, symSize: 0x90 }
  - { offsetInCU: 0x1B075, offset: 0x1B075, size: 0x8, addend: 0x0, symName: __ZNSt3__119__constexpr_memmoveB8ue170006IP4trieINS_12basic_stringIcNS_11char_traitsIcEENS_9allocatorIcEEEEES9_Li0EEEPT_SB_PT0_NS_15__element_countE, symObjAddr: 0x17EC4, symBinAddr: 0x10001A350, symSize: 0x64 }
  - { offsetInCU: 0x1B0E3, offset: 0x1B0E3, size: 0x8, addend: 0x0, symName: __ZNSt3__19make_pairB8ue170006IRPP4trieINS_12basic_stringIcNS_11char_traitsIcEENS_9allocatorIcEEEEESB_EENS_4pairINS_18__unwrap_ref_decayIT_E4typeENSD_IT0_E4typeEEEOSE_OSH_, symObjAddr: 0x17F28, symBinAddr: 0x10001A3B4, symSize: 0x38 }
  - { offsetInCU: 0x1B185, offset: 0x1B185, size: 0x8, addend: 0x0, symName: __ZNSt3__14moveB8ue170006IPP4trieINS_12basic_stringIcNS_11char_traitsIcEENS_9allocatorIcEEEEESA_EET0_T_SC_SB_, symObjAddr: 0x180B4, symBinAddr: 0x10001A540, symSize: 0x40 }
  - { offsetInCU: 0x1B1DF, offset: 0x1B1DF, size: 0x8, addend: 0x0, symName: __ZNSt3__16__moveB8ue170006INS_17_ClassicAlgPolicyEPP4trieINS_12basic_stringIcNS_11char_traitsIcEENS_9allocatorIcEEEEESB_SB_EENS_4pairIT0_T2_EESD_T1_SE_, symObjAddr: 0x18188, symBinAddr: 0x10001A614, symSize: 0x44 }
  - { offsetInCU: 0x1B24B, offset: 0x1B24B, size: 0x8, addend: 0x0, symName: __ZNSt3__123__dispatch_copy_or_moveB8ue170006INS_17_ClassicAlgPolicyENS_11__move_loopIS1_EENS_14__move_trivialEPP4trieINS_12basic_stringIcNS_11char_traitsIcEENS_9allocatorIcEEEEESE_SE_EENS_4pairIT2_T4_EESG_T3_SH_, symObjAddr: 0x181CC, symBinAddr: 0x10001A658, symSize: 0x44 }
  - { offsetInCU: 0x1B2C9, offset: 0x1B2C9, size: 0x8, addend: 0x0, symName: __ZNSt3__121__unwrap_and_dispatchB8ue170006INS_10__overloadINS_11__move_loopINS_17_ClassicAlgPolicyEEENS_14__move_trivialEEEPP4trieINS_12basic_stringIcNS_11char_traitsIcEENS_9allocatorIcEEEEESG_SG_Li0EEENS_4pairIT0_T2_EESI_T1_SJ_, symObjAddr: 0x18210, symBinAddr: 0x10001A69C, symSize: 0xB4 }
  - { offsetInCU: 0x1B357, offset: 0x1B357, size: 0x8, addend: 0x0, symName: __ZNSt3__119__copy_trivial_implB8ue170006IP4trieINS_12basic_stringIcNS_11char_traitsIcEENS_9allocatorIcEEEEES9_EENS_4pairIPT_PT0_EESC_SC_SE_, symObjAddr: 0x1830C, symBinAddr: 0x10001A798, symSize: 0x80 }
  - { offsetInCU: 0x1B3BF, offset: 0x1B3BF, size: 0x8, addend: 0x0, symName: __ZNSt3__19make_pairB8ue170006IRPP4trieINS_12basic_stringIcNS_11char_traitsIcEENS_9allocatorIcEEEEESA_EENS_4pairINS_18__unwrap_ref_decayIT_E4typeENSD_IT0_E4typeEEEOSE_OSH_, symObjAddr: 0x1838C, symBinAddr: 0x10001A818, symSize: 0x38 }
  - { offsetInCU: 0x1B40E, offset: 0x1B40E, size: 0x8, addend: 0x0, symName: __ZNSt3__18distanceB8ue170006INS_13move_iteratorIPP4trieINS_12basic_stringIcNS_11char_traitsIcEENS_9allocatorIcEEEEEEEEENS_15iterator_traitsIT_E15difference_typeESE_SE_, symObjAddr: 0x18510, symBinAddr: 0x10001A99C, symSize: 0x3C }
  - { offsetInCU: 0x1B451, offset: 0x1B451, size: 0x8, addend: 0x0, symName: __ZNSt3__110__distanceB8ue170006INS_13move_iteratorIPP4trieINS_12basic_stringIcNS_11char_traitsIcEENS_9allocatorIcEEEEEEEEENS_15iterator_traitsIT_E15difference_typeESE_SE_NS_26random_access_iterator_tagE, symObjAddr: 0x18650, symBinAddr: 0x10001AADC, symSize: 0x30 }
  - { offsetInCU: 0x1B49E, offset: 0x1B49E, size: 0x8, addend: 0x0, symName: __ZNSt3__1miB8ue170006IPP4trieINS_12basic_stringIcNS_11char_traitsIcEENS_9allocatorIcEEEEESA_EEDTmicldtfp_4baseEcldtfp0_4baseEERKNS_13move_iteratorIT_EERKNSC_IT0_EE, symObjAddr: 0x18680, symBinAddr: 0x10001AB0C, symSize: 0x48 }
  - { offsetInCU: 0x1B4ED, offset: 0x1B4ED, size: 0x8, addend: 0x0, symName: __ZNSt3__142__uninitialized_allocator_move_if_noexceptB8ue170006INS_9allocatorIP4trieINS_12basic_stringIcNS_11char_traitsIcEENS1_IcEEEEEEEPS9_SB_S9_vEET1_RT_T0_SF_SC_, symObjAddr: 0x18700, symBinAddr: 0x10001AB8C, symSize: 0x38 }
  - { offsetInCU: 0x1B569, offset: 0x1B569, size: 0x8, addend: 0x0, symName: __ZNSt3__1plB8ue170006IcNS_11char_traitsIcEENS_9allocatorIcEEEENS_12basic_stringIT_T0_T1_EERKS9_SB_, symObjAddr: 0x188BC, symBinAddr: 0x10001AD48, symSize: 0x134 }
  - { offsetInCU: 0x1B60A, offset: 0x1B60A, size: 0x8, addend: 0x0, symName: __ZNSt3__16fill_nB8ue170006IPcmcEET_S2_T0_RKT1_, symObjAddr: 0x19284, symBinAddr: 0x10001B710, symSize: 0x44 }
  - { offsetInCU: 0x1B66D, offset: 0x1B66D, size: 0x8, addend: 0x0, symName: __ZNSt3__18__fill_nB8ue170006IPcmcEET_S2_T0_RKT1_, symObjAddr: 0x192C8, symBinAddr: 0x10001B754, symSize: 0x64 }
  - { offsetInCU: 0x1B6D0, offset: 0x1B6D0, size: 0x8, addend: 0x0, symName: __ZNSt3__121__convert_to_integralB8ue170006Em, symObjAddr: 0x1932C, symBinAddr: 0x10001B7B8, symSize: 0x14 }
  - { offsetInCU: 0x1B6FC, offset: 0x1B6FC, size: 0x8, addend: 0x0, symName: __ZNSt3__14sortB8ue170006INS_11__wrap_iterIPP4trieINS_12basic_stringIcNS_11char_traitsIcEENS_9allocatorIcEEEEEEEZN3bagIS9_E7reorderEvEUlPKS9_SG_E_EEvT_SI_T0_, symObjAddr: 0x19340, symBinAddr: 0x10001B7CC, symSize: 0x40 }
  - { offsetInCU: 0x1B756, offset: 0x1B756, size: 0x8, addend: 0x0, symName: __ZNSt3__111__sort_implB8ue170006INS_17_ClassicAlgPolicyENS_11__wrap_iterIPP4trieINS_12basic_stringIcNS_11char_traitsIcEENS_9allocatorIcEEEEEEEZN3bagISA_E7reorderEvEUlPKSA_SH_E_EEvT0_SJ_RT1_, symObjAddr: 0x19380, symBinAddr: 0x10001B80C, symSize: 0xA8 }
  - { offsetInCU: 0x1B7B9, offset: 0x1B7B9, size: 0x8, addend: 0x0, symName: __ZNSt3__123__debug_randomize_rangeB8ue170006INS_17_ClassicAlgPolicyENS_11__wrap_iterIPP4trieINS_12basic_stringIcNS_11char_traitsIcEENS_9allocatorIcEEEEEEESD_EEvT0_T1_, symObjAddr: 0x19428, symBinAddr: 0x10001B8B4, symSize: 0x14 }
  - { offsetInCU: 0x1B80A, offset: 0x1B80A, size: 0x8, addend: 0x0, symName: __ZNSt3__115__sort_dispatchB8ue170006INS_17_ClassicAlgPolicyEPP4trieINS_12basic_stringIcNS_11char_traitsIcEENS_9allocatorIcEEEEEZN3bagIS9_E7reorderEvEUlPKS9_SF_E_EEvT0_SH_RT1_, symObjAddr: 0x1943C, symBinAddr: 0x10001B8C8, symSize: 0x64 }
  - { offsetInCU: 0x1B888, offset: 0x1B888, size: 0x8, addend: 0x0, symName: __ZNSt3__113__unwrap_iterB8ue170006INS_11__wrap_iterIPP4trieINS_12basic_stringIcNS_11char_traitsIcEENS_9allocatorIcEEEEEEENS_18__unwrap_iter_implISC_Lb1EEELi0EEEDTclsrT0_8__unwrapclsr3stdE7declvalIT_EEEESG_, symObjAddr: 0x194A0, symBinAddr: 0x10001B92C, symSize: 0x2C }
  - { offsetInCU: 0x1B8CC, offset: 0x1B8CC, size: 0x8, addend: 0x0, symName: __ZNSt3__135__check_strict_weak_ordering_sortedB8ue170006IPP4trieINS_12basic_stringIcNS_11char_traitsIcEENS_9allocatorIcEEEEEZN3bagIS8_E7reorderEvEUlPKS8_SE_E_EEvT_SG_RT0_, symObjAddr: 0x194CC, symBinAddr: 0x10001B958, symSize: 0x18 }
  - { offsetInCU: 0x1B922, offset: 0x1B922, size: 0x8, addend: 0x0, symName: __ZNSt3__17__log2iB8ue170006IlEET_S1_, symObjAddr: 0x194E4, symBinAddr: 0x10001B970, symSize: 0x54 }
  - { offsetInCU: 0x1B959, offset: 0x1B959, size: 0x8, addend: 0x0, symName: __ZNSt3__112__libcpp_clzB8ue170006Em, symObjAddr: 0x19990, symBinAddr: 0x10001BE1C, symSize: 0x1C }
  - { offsetInCU: 0x1B985, offset: 0x1B985, size: 0x8, addend: 0x0, symName: __ZNSt3__124__sort3_maybe_branchlessB8ue170006INS_17_ClassicAlgPolicyERZN3bagI4trieINS_12basic_stringIcNS_11char_traitsIcEENS_9allocatorIcEEEEEE7reorderEvEUlPKSA_SD_E_PPSA_EENS_9enable_ifIXntsr21__use_branchless_sortIT0_T1_EE5valueEvE4typeESK_SK_SK_SJ_, symObjAddr: 0x19A28, symBinAddr: 0x10001BEB4, symSize: 0x3C }
  - { offsetInCU: 0x1B9F6, offset: 0x1B9F6, size: 0x8, addend: 0x0, symName: __ZNSt3__124__sort4_maybe_branchlessB8ue170006INS_17_ClassicAlgPolicyERZN3bagI4trieINS_12basic_stringIcNS_11char_traitsIcEENS_9allocatorIcEEEEEE7reorderEvEUlPKSA_SD_E_PPSA_EENS_9enable_ifIXntsr21__use_branchless_sortIT0_T1_EE5valueEvE4typeESK_SK_SK_SK_SJ_, symObjAddr: 0x19A64, symBinAddr: 0x10001BEF0, symSize: 0x44 }
  - { offsetInCU: 0x1BA75, offset: 0x1BA75, size: 0x8, addend: 0x0, symName: __ZNSt3__124__sort5_maybe_branchlessB8ue170006INS_17_ClassicAlgPolicyERZN3bagI4trieINS_12basic_stringIcNS_11char_traitsIcEENS_9allocatorIcEEEEEE7reorderEvEUlPKSA_SD_E_PPSA_EENS_9enable_ifIXntsr21__use_branchless_sortIT0_T1_EE5valueEvE4typeESK_SK_SK_SK_SK_SJ_, symObjAddr: 0x19AA8, symBinAddr: 0x10001BF34, symSize: 0x4C }
  - { offsetInCU: 0x1BB02, offset: 0x1BB02, size: 0x8, addend: 0x0, symName: __ZNSt3__116__insertion_sortB8ue170006INS_17_ClassicAlgPolicyERZN3bagI4trieINS_12basic_stringIcNS_11char_traitsIcEENS_9allocatorIcEEEEEE7reorderEvEUlPKSA_SD_E_PPSA_EEvT1_SI_T0_, symObjAddr: 0x19AF4, symBinAddr: 0x10001BF80, symSize: 0x15C }
  - { offsetInCU: 0x1BBC5, offset: 0x1BBC5, size: 0x8, addend: 0x0, symName: __ZNSt3__114__partial_sortB8ue170006INS_17_ClassicAlgPolicyERZN3bagI4trieINS_12basic_stringIcNS_11char_traitsIcEENS_9allocatorIcEEEEEE7reorderEvEUlPKSA_SD_E_PPSA_SH_EET1_SI_SI_T2_RT0_, symObjAddr: 0x19D7C, symBinAddr: 0x10001C208, symSize: 0x94 }
  - { offsetInCU: 0x1BC4D, offset: 0x1BC4D, size: 0x8, addend: 0x0, symName: __ZNSt3__17__sort3B8ue170006INS_17_ClassicAlgPolicyERZN3bagI4trieINS_12basic_stringIcNS_11char_traitsIcEENS_9allocatorIcEEEEEE7reorderEvEUlPKSA_SD_E_PPSA_EEjT1_SI_SI_T0_, symObjAddr: 0x19E10, symBinAddr: 0x10001C29C, symSize: 0x16C }
  - { offsetInCU: 0x1BCCC, offset: 0x1BCCC, size: 0x8, addend: 0x0, symName: __ZNSt3__19iter_swapB8ue170006IPP4trieINS_12basic_stringIcNS_11char_traitsIcEENS_9allocatorIcEEEEESA_EEvT_T0_, symObjAddr: 0x1AA60, symBinAddr: 0x10001CEEC, symSize: 0x2C }
  - { offsetInCU: 0x1BD14, offset: 0x1BD14, size: 0x8, addend: 0x0, symName: __ZNSt3__14swapB8ue170006IP4trieINS_12basic_stringIcNS_11char_traitsIcEENS_9allocatorIcEEEEEEENS_9enable_ifIXaasr21is_move_constructibleIT_EE5valuesr18is_move_assignableISB_EE5valueEvE4typeERSB_SE_, symObjAddr: 0x1AA8C, symBinAddr: 0x10001CF18, symSize: 0x3C }
  - { offsetInCU: 0x1BD65, offset: 0x1BD65, size: 0x8, addend: 0x0, symName: __ZNSt3__17__sort4B8ue170006INS_17_ClassicAlgPolicyERZN3bagI4trieINS_12basic_stringIcNS_11char_traitsIcEENS_9allocatorIcEEEEEE7reorderEvEUlPKSA_SD_E_PPSA_EEvT1_SI_SI_SI_T0_, symObjAddr: 0x1AAC8, symBinAddr: 0x10001CF54, symSize: 0xD0 }
  - { offsetInCU: 0x1BDE0, offset: 0x1BDE0, size: 0x8, addend: 0x0, symName: __ZNSt3__17__sort5B8ue170006INS_17_ClassicAlgPolicyERZN3bagI4trieINS_12basic_stringIcNS_11char_traitsIcEENS_9allocatorIcEEEEEE7reorderEvEUlPKSA_SD_E_PPSA_EEvT1_SI_SI_SI_SI_T0_, symObjAddr: 0x1AB98, symBinAddr: 0x10001D024, symSize: 0x108 }
  - { offsetInCU: 0x1BE69, offset: 0x1BE69, size: 0x8, addend: 0x0, symName: __ZNSt3__123__debug_randomize_rangeB8ue170006INS_17_ClassicAlgPolicyEPP4trieINS_12basic_stringIcNS_11char_traitsIcEENS_9allocatorIcEEEEESB_EEvT0_T1_, symObjAddr: 0x1ACE4, symBinAddr: 0x10001D170, symSize: 0x14 }
  - { offsetInCU: 0x1BEBA, offset: 0x1BEBA, size: 0x8, addend: 0x0, symName: __ZNSt3__119__partial_sort_implB8ue170006INS_17_ClassicAlgPolicyERZN3bagI4trieINS_12basic_stringIcNS_11char_traitsIcEENS_9allocatorIcEEEEEE7reorderEvEUlPKSA_SD_E_PPSA_SH_EET1_SI_SI_T2_OT0_, symObjAddr: 0x1ACF8, symBinAddr: 0x10001D184, symSize: 0x118 }
  - { offsetInCU: 0x1BF50, offset: 0x1BF50, size: 0x8, addend: 0x0, symName: __ZNSt3__111__make_heapB8ue170006INS_17_ClassicAlgPolicyERZN3bagI4trieINS_12basic_stringIcNS_11char_traitsIcEENS_9allocatorIcEEEEEE7reorderEvEUlPKSA_SD_E_PPSA_EEvT1_SI_OT0_, symObjAddr: 0x1AE10, symBinAddr: 0x10001D29C, symSize: 0xB8 }
  - { offsetInCU: 0x1BFF2, offset: 0x1BFF2, size: 0x8, addend: 0x0, symName: __ZNSt3__111__sort_heapB8ue170006INS_17_ClassicAlgPolicyERZN3bagI4trieINS_12basic_stringIcNS_11char_traitsIcEENS_9allocatorIcEEEEEE7reorderEvEUlPKSA_SD_E_PPSA_EEvT1_SI_OT0_, symObjAddr: 0x1B0E8, symBinAddr: 0x10001D574, symSize: 0xA8 }
  - { offsetInCU: 0x1C094, offset: 0x1C094, size: 0x8, addend: 0x0, symName: __ZNSt3__110__pop_heapB8ue170006INS_17_ClassicAlgPolicyEZN3bagI4trieINS_12basic_stringIcNS_11char_traitsIcEENS_9allocatorIcEEEEEE7reorderEvEUlPKSA_SD_E_PPSA_EEvT1_SH_RT0_NS_15iterator_traitsISH_E15difference_typeE, symObjAddr: 0x1B190, symBinAddr: 0x10001D61C, symSize: 0xF4 }
  - { offsetInCU: 0x1C144, offset: 0x1C144, size: 0x8, addend: 0x0, symName: __ZNSt3__19__sift_upB8ue170006INS_17_ClassicAlgPolicyERZN3bagI4trieINS_12basic_stringIcNS_11char_traitsIcEENS_9allocatorIcEEEEEE7reorderEvEUlPKSA_SD_E_PPSA_EEvT1_SI_OT0_NS_15iterator_traitsISI_E15difference_typeE, symObjAddr: 0x1B388, symBinAddr: 0x10001D814, symSize: 0x128 }
  - { offsetInCU: 0x1C1F4, offset: 0x1C1F4, size: 0x8, addend: 0x0, symName: __ZNSt3__122__populate_left_bitsetB8ue170006IRZN3bagI4trieINS_12basic_stringIcNS_11char_traitsIcEENS_9allocatorIcEEEEEE7reorderEvEUlPKS9_SC_E_PPS9_SF_EEvT0_T_RT1_Ry, symObjAddr: 0x1B4B0, symBinAddr: 0x10001D93C, symSize: 0xB0 }
  - { offsetInCU: 0x1C2AF, offset: 0x1C2AF, size: 0x8, addend: 0x0, symName: __ZNSt3__123__populate_right_bitsetB8ue170006IRZN3bagI4trieINS_12basic_stringIcNS_11char_traitsIcEENS_9allocatorIcEEEEEE7reorderEvEUlPKS9_SC_E_PPS9_SF_EEvT0_T_RT1_Ry, symObjAddr: 0x1B560, symBinAddr: 0x10001D9EC, symSize: 0xA8 }
  - { offsetInCU: 0x1C36A, offset: 0x1C36A, size: 0x8, addend: 0x0, symName: __ZNSt3__117__swap_bitmap_posB8ue170006INS_17_ClassicAlgPolicyEPP4trieINS_12basic_stringIcNS_11char_traitsIcEENS_9allocatorIcEEEEEEEvT0_SC_RySD_, symObjAddr: 0x1B608, symBinAddr: 0x10001DA94, symSize: 0x100 }
  - { offsetInCU: 0x1C40B, offset: 0x1C40B, size: 0x8, addend: 0x0, symName: __ZNSt3__133__bitset_partition_partial_blocksB8ue170006INS_17_ClassicAlgPolicyERZN3bagI4trieINS_12basic_stringIcNS_11char_traitsIcEENS_9allocatorIcEEEEEE7reorderEvEUlPKSA_SD_E_PPSA_SG_EEvRT1_SJ_T0_RT2_RySN_, symObjAddr: 0x1B708, symBinAddr: 0x10001DB94, symSize: 0x2F8 }
  - { offsetInCU: 0x1C58C, offset: 0x1C58C, size: 0x8, addend: 0x0, symName: __ZNSt3__19make_pairB8ue170006IRPP4trieINS_12basic_stringIcNS_11char_traitsIcEENS_9allocatorIcEEEEERbEENS_4pairINS_18__unwrap_ref_decayIT_E4typeENSE_IT0_E4typeEEEOSF_OSI_, symObjAddr: 0x1BBE0, symBinAddr: 0x10001E06C, symSize: 0x38 }
  - { offsetInCU: 0x1C5DB, offset: 0x1C5DB, size: 0x8, addend: 0x0, symName: __ZNSt3__112__libcpp_ctzB8ue170006Ey, symObjAddr: 0x1BC18, symBinAddr: 0x10001E0A4, symSize: 0x20 }
  - { offsetInCU: 0x1C607, offset: 0x1C607, size: 0x8, addend: 0x0, symName: __ZNSt3__113__libcpp_blsrB8ue170006Ey, symObjAddr: 0x1BC38, symBinAddr: 0x10001E0C4, symSize: 0x2C }
  - { offsetInCU: 0x1C633, offset: 0x1C633, size: 0x8, addend: 0x0, symName: __ZNSt3__112__libcpp_clzB8ue170006Ey, symObjAddr: 0x1BC98, symBinAddr: 0x10001E124, symSize: 0x1C }
  - { offsetInCU: 0x1C786, offset: 0x1C786, size: 0x8, addend: 0x0, symName: __ZNSt3__112__to_addressB8ue170006INS_11__wrap_iterIPP4trieINS_12basic_stringIcNS_11char_traitsIcEENS_9allocatorIcEEEEEEEvEEu7__decayIDTclsr19__to_address_helperIT_EE6__callclsr3stdE7declvalIRKSD_EEEEESF_, symObjAddr: 0x1BD50, symBinAddr: 0x10001E1DC, symSize: 0x24 }
  - { offsetInCU: 0x1C861, offset: 0x1C861, size: 0x8, addend: 0x0, symName: __ZNSt3__122__make_exception_guardB8ue170006INS_6vectorIP4trieINS_12basic_stringIcNS_11char_traitsIcEENS_9allocatorIcEEEEENS6_ISA_EEE16__destroy_vectorEEENS_28__exception_guard_exceptionsIT_EESF_, symObjAddr: 0x1C034, symBinAddr: 0x10001E4C0, symSize: 0x40 }
  - { offsetInCU: 0x1C896, offset: 0x1C896, size: 0x8, addend: 0x0, symName: __ZNSt3__130__uninitialized_allocator_copyB8ue170006INS_9allocatorIP4trieINS_12basic_stringIcNS_11char_traitsIcEENS1_IcEEEEEEEPS9_SB_SB_EET2_RT_T0_T1_SC_, symObjAddr: 0x1C24C, symBinAddr: 0x10001E6D8, symSize: 0x80 }
  - { offsetInCU: 0x1C933, offset: 0x1C933, size: 0x8, addend: 0x0, symName: __ZNSt3__135__uninitialized_allocator_copy_implB8ue170006INS_9allocatorIP4trieINS_12basic_stringIcNS_11char_traitsIcEENS1_IcEEEEEEES9_S9_S9_LPv0EEEPT2_RT_PT0_SH_SD_, symObjAddr: 0x1C2CC, symBinAddr: 0x10001E758, symSize: 0x38 }
  - { offsetInCU: 0x1C9B4, offset: 0x1C9B4, size: 0x8, addend: 0x0, symName: __ZNSt3__14copyB8ue170006IPP4trieINS_12basic_stringIcNS_11char_traitsIcEENS_9allocatorIcEEEEESA_EET0_T_SC_SB_, symObjAddr: 0x1C304, symBinAddr: 0x10001E790, symSize: 0x40 }
  - { offsetInCU: 0x1CA0E, offset: 0x1CA0E, size: 0x8, addend: 0x0, symName: __ZNSt3__16__copyB8ue170006INS_17_ClassicAlgPolicyEPP4trieINS_12basic_stringIcNS_11char_traitsIcEENS_9allocatorIcEEEEESB_SB_EENS_4pairIT0_T2_EESD_T1_SE_, symObjAddr: 0x1C344, symBinAddr: 0x10001E7D0, symSize: 0x44 }
  - { offsetInCU: 0x1CA7A, offset: 0x1CA7A, size: 0x8, addend: 0x0, symName: __ZNSt3__123__dispatch_copy_or_moveB8ue170006INS_17_ClassicAlgPolicyENS_11__copy_loopIS1_EENS_14__copy_trivialEPP4trieINS_12basic_stringIcNS_11char_traitsIcEENS_9allocatorIcEEEEESE_SE_EENS_4pairIT2_T4_EESG_T3_SH_, symObjAddr: 0x1C388, symBinAddr: 0x10001E814, symSize: 0x44 }
  - { offsetInCU: 0x1CAF8, offset: 0x1CAF8, size: 0x8, addend: 0x0, symName: __ZNSt3__121__unwrap_and_dispatchB8ue170006INS_10__overloadINS_11__copy_loopINS_17_ClassicAlgPolicyEEENS_14__copy_trivialEEEPP4trieINS_12basic_stringIcNS_11char_traitsIcEENS_9allocatorIcEEEEESG_SG_Li0EEENS_4pairIT0_T2_EESI_T1_SJ_, symObjAddr: 0x1C3CC, symBinAddr: 0x10001E858, symSize: 0xB4 }
  - { offsetInCU: 0x1CB86, offset: 0x1CB86, size: 0x8, addend: 0x0, symName: __ZNSt3__18distanceB8ue170006IPP4trieINS_12basic_stringIcNS_11char_traitsIcEENS_9allocatorIcEEEEEEENS_15iterator_traitsIT_E15difference_typeESC_SC_, symObjAddr: 0x1C7F8, symBinAddr: 0x10001EC84, symSize: 0x2C }
  - { offsetInCU: 0x1CBC9, offset: 0x1CBC9, size: 0x8, addend: 0x0, symName: __ZNSt3__14nextB8ue170006IPP4trieINS_12basic_stringIcNS_11char_traitsIcEENS_9allocatorIcEEEEEEENS_9enable_ifIXsr29__has_input_iterator_categoryIT_EE5valueESC_E4typeESC_NS_15iterator_traitsISC_E15difference_typeE, symObjAddr: 0x1C824, symBinAddr: 0x10001ECB0, symSize: 0x34 }
  - { offsetInCU: 0x1CC0C, offset: 0x1CC0C, size: 0x8, addend: 0x0, symName: __ZNSt3__19__advanceB8ue170006IPP4trieINS_12basic_stringIcNS_11char_traitsIcEENS_9allocatorIcEEEEEEEvRT_NS_15iterator_traitsISB_E15difference_typeENS_26random_access_iterator_tagE, symObjAddr: 0x1C970, symBinAddr: 0x10001EDFC, symSize: 0x28 }
  - { offsetInCU: 0x1CC55, offset: 0x1CC55, size: 0x8, addend: 0x0, symName: __ZNSt3__110__distanceB8ue170006IPP4trieINS_12basic_stringIcNS_11char_traitsIcEENS_9allocatorIcEEEEEEENS_15iterator_traitsIT_E15difference_typeESC_SC_NS_26random_access_iterator_tagE, symObjAddr: 0x1C998, symBinAddr: 0x10001EE24, symSize: 0x28 }
  - { offsetInCU: 0x1CCA2, offset: 0x1CCA2, size: 0x8, addend: 0x0, symName: __ZNSt3__1neB8ue170006IcNS_11char_traitsIcEENS_9allocatorIcEEEEbRKNS_12basic_stringIT_T0_T1_EESB_, symObjAddr: 0x1CD40, symBinAddr: 0x10001F1CC, symSize: 0x34 }
  - { offsetInCU: 0x1CCFA, offset: 0x1CCFA, size: 0x8, addend: 0x0, symName: __ZNSt3__112__to_addressB8ue170006IP4trieIiEEEPT_S5_, symObjAddr: 0x1E9B4, symBinAddr: 0x100020E40, symSize: 0x14 }
  - { offsetInCU: 0x1CD2F, offset: 0x1CD2F, size: 0x8, addend: 0x0, symName: __ZNSt3__1neB8ue170006IPP4trieIiEEEbRKNS_11__wrap_iterIT_EES9_, symObjAddr: 0x1EBE8, symBinAddr: 0x100021074, symSize: 0x34 }
  - { offsetInCU: 0x1CD72, offset: 0x1CD72, size: 0x8, addend: 0x0, symName: __ZNSt3__1eqB8ue170006IPP4trieIiEEEbRKNS_11__wrap_iterIT_EES9_, symObjAddr: 0x1ED04, symBinAddr: 0x100021190, symSize: 0x48 }
  - { offsetInCU: 0x1CDB5, offset: 0x1CDB5, size: 0x8, addend: 0x0, symName: __ZNSt3__119__allocate_at_leastB8ue170006INS_9allocatorIP4trieIiEEEEENS_19__allocation_resultINS_16allocator_traitsIT_E7pointerEEERS8_m, symObjAddr: 0x1F700, symBinAddr: 0x100021B8C, symSize: 0x40 }
  - { offsetInCU: 0x1CDF8, offset: 0x1CDF8, size: 0x8, addend: 0x0, symName: __ZNSt3__142__uninitialized_allocator_move_if_noexceptB8ue170006INS_9allocatorIP4trieIiEEENS_16reverse_iteratorIPS4_EES8_S4_vEET1_RT_T0_SC_S9_, symObjAddr: 0x1F8B4, symBinAddr: 0x100021D40, symSize: 0x78 }
  - { offsetInCU: 0x1CE75, offset: 0x1CE75, size: 0x8, addend: 0x0, symName: __ZNSt3__14swapB8ue170006IPP4trieIiEEENS_9enable_ifIXaasr21is_move_constructibleIT_EE5valuesr18is_move_assignableIS6_EE5valueEvE4typeERS6_S9_, symObjAddr: 0x1F978, symBinAddr: 0x100021E04, symSize: 0x3C }
  - { offsetInCU: 0x1CEC6, offset: 0x1CEC6, size: 0x8, addend: 0x0, symName: __ZNSt3__14moveB8ue170006INS_16reverse_iteratorIPP4trieIiEEES6_EET0_T_S8_S7_, symObjAddr: 0x1FA60, symBinAddr: 0x100021EEC, symSize: 0x78 }
  - { offsetInCU: 0x1CF20, offset: 0x1CF20, size: 0x8, addend: 0x0, symName: __ZNSt3__16__moveB8ue170006INS_17_ClassicAlgPolicyENS_16reverse_iteratorIPP4trieIiEEES7_S7_EENS_4pairIT0_T2_EES9_T1_SA_, symObjAddr: 0x1FAD8, symBinAddr: 0x100021F64, symSize: 0x64 }
  - { offsetInCU: 0x1CF8C, offset: 0x1CF8C, size: 0x8, addend: 0x0, symName: __ZNSt3__123__dispatch_copy_or_moveB8ue170006INS_17_ClassicAlgPolicyENS_11__move_loopIS1_EENS_14__move_trivialENS_16reverse_iteratorIPP4trieIiEEESA_SA_EENS_4pairIT2_T4_EESC_T3_SD_, symObjAddr: 0x1FB3C, symBinAddr: 0x100021FC8, symSize: 0x64 }
  - { offsetInCU: 0x1D00A, offset: 0x1D00A, size: 0x8, addend: 0x0, symName: __ZNSt3__121__unwrap_and_dispatchB8ue170006INS_10__overloadINS_11__move_loopINS_17_ClassicAlgPolicyEEENS_14__move_trivialEEENS_16reverse_iteratorIPP4trieIiEEESC_SC_Li0EEENS_4pairIT0_T2_EESE_T1_SF_, symObjAddr: 0x1FBA0, symBinAddr: 0x10002202C, symSize: 0x12C }
  - { offsetInCU: 0x1D09A, offset: 0x1D09A, size: 0x8, addend: 0x0, symName: __ZNSt3__114__unwrap_rangeB8ue170006INS_16reverse_iteratorIPP4trieIiEEES6_EENS_4pairIT0_S8_EET_SA_, symObjAddr: 0x1FCCC, symBinAddr: 0x100022158, symSize: 0x84 }
  - { offsetInCU: 0x1D1BA, offset: 0x1D1BA, size: 0x8, addend: 0x0, symName: __ZNSt3__113__unwrap_iterB8ue170006INS_16reverse_iteratorIPP4trieIiEEENS_18__unwrap_iter_implIS6_Lb0EEELi0EEEDTclsrT0_8__unwrapclsr3stdE7declvalIT_EEEESA_, symObjAddr: 0x1FDF0, symBinAddr: 0x10002227C, symSize: 0x44 }
  - { offsetInCU: 0x1D1FE, offset: 0x1D1FE, size: 0x8, addend: 0x0, symName: __ZNSt3__19make_pairB8ue170006INS_16reverse_iteratorIPP4trieIiEEES6_EENS_4pairINS_18__unwrap_ref_decayIT_E4typeENS8_IT0_E4typeEEEOS9_OSC_, symObjAddr: 0x1FE34, symBinAddr: 0x1000222C0, symSize: 0x38 }
  - { offsetInCU: 0x1D24D, offset: 0x1D24D, size: 0x8, addend: 0x0, symName: __ZNSt3__114__rewrap_rangeB8ue170006INS_16reverse_iteratorIPP4trieIiEEES6_EET_S7_T0_, symObjAddr: 0x1FE6C, symBinAddr: 0x1000222F8, symSize: 0x5C }
  - { offsetInCU: 0x1D299, offset: 0x1D299, size: 0x8, addend: 0x0, symName: __ZNSt3__113__rewrap_iterB8ue170006INS_16reverse_iteratorIPP4trieIiEEES6_NS_18__unwrap_iter_implIS6_Lb0EEEEET_S9_T0_, symObjAddr: 0x1FEC8, symBinAddr: 0x100022354, symSize: 0x74 }
  - { offsetInCU: 0x1D2EE, offset: 0x1D2EE, size: 0x8, addend: 0x0, symName: __ZNSt3__1neB8ue170006IPP4trieIiES4_EEbRKNS_16reverse_iteratorIT_EERKNS5_IT0_EE, symObjAddr: 0x1FF3C, symBinAddr: 0x1000223C8, symSize: 0x48 }
  - { offsetInCU: 0x1D3A6, offset: 0x1D3A6, size: 0x8, addend: 0x0, symName: __ZNSt3__1miB8ue170006IPKP4trieIiEPS3_EEDTmicldtfp_4baseEcldtfp0_4baseEERKNS_11__wrap_iterIT_EERKNS8_IT0_EE, symObjAddr: 0x202CC, symBinAddr: 0x100022758, symSize: 0x48 }
  - { offsetInCU: 0x1D425, offset: 0x1D425, size: 0x8, addend: 0x0, symName: __ZNSt3__113move_backwardB8ue170006IPP4trieIiES4_EET0_T_S6_S5_, symObjAddr: 0x2084C, symBinAddr: 0x100022CD8, symSize: 0x40 }
  - { offsetInCU: 0x1D47F, offset: 0x1D47F, size: 0x8, addend: 0x0, symName: __ZNSt3__115__move_backwardB8ue170006INS_17_ClassicAlgPolicyEPP4trieIiES5_S5_EENS_4pairIT0_T2_EES7_T1_S8_, symObjAddr: 0x208B4, symBinAddr: 0x100022D40, symSize: 0x44 }
  - { offsetInCU: 0x1D4EB, offset: 0x1D4EB, size: 0x8, addend: 0x0, symName: __ZNSt3__123__dispatch_copy_or_moveB8ue170006INS_17_ClassicAlgPolicyENS_20__move_backward_loopIS1_EENS_23__move_backward_trivialEPP4trieIiES8_S8_EENS_4pairIT2_T4_EESA_T3_SB_, symObjAddr: 0x208F8, symBinAddr: 0x100022D84, symSize: 0x44 }
  - { offsetInCU: 0x1D569, offset: 0x1D569, size: 0x8, addend: 0x0, symName: __ZNSt3__121__unwrap_and_dispatchB8ue170006INS_10__overloadINS_20__move_backward_loopINS_17_ClassicAlgPolicyEEENS_23__move_backward_trivialEEEPP4trieIiESA_SA_Li0EEENS_4pairIT0_T2_EESC_T1_SD_, symObjAddr: 0x2093C, symBinAddr: 0x100022DC8, symSize: 0xB4 }
  - { offsetInCU: 0x1D5F7, offset: 0x1D5F7, size: 0x8, addend: 0x0, symName: __ZNSt3__114__unwrap_rangeB8ue170006IPP4trieIiES4_EENS_4pairIT0_S6_EET_S8_, symObjAddr: 0x209F0, symBinAddr: 0x100022E7C, symSize: 0x60 }
  - { offsetInCU: 0x1D775, offset: 0x1D775, size: 0x8, addend: 0x0, symName: __ZNSt3__113__unwrap_iterB8ue170006IPP4trieIiENS_18__unwrap_iter_implIS4_Lb1EEELi0EEEDTclsrT0_8__unwrapclsr3stdE7declvalIT_EEEES8_, symObjAddr: 0x20A98, symBinAddr: 0x100022F24, symSize: 0x24 }
  - { offsetInCU: 0x1D7B9, offset: 0x1D7B9, size: 0x8, addend: 0x0, symName: __ZNSt3__19make_pairB8ue170006IPP4trieIiES4_EENS_4pairINS_18__unwrap_ref_decayIT_E4typeENS6_IT0_E4typeEEEOS7_OSA_, symObjAddr: 0x20ABC, symBinAddr: 0x100022F48, symSize: 0x38 }
  - { offsetInCU: 0x1D808, offset: 0x1D808, size: 0x8, addend: 0x0, symName: __ZNSt3__114__rewrap_rangeB8ue170006IPP4trieIiES4_EET_S5_T0_, symObjAddr: 0x20AF4, symBinAddr: 0x100022F80, symSize: 0x2C }
  - { offsetInCU: 0x1D854, offset: 0x1D854, size: 0x8, addend: 0x0, symName: __ZNSt3__113__rewrap_iterB8ue170006IPP4trieIiES4_NS_18__unwrap_iter_implIS4_Lb1EEEEET_S7_T0_, symObjAddr: 0x20B20, symBinAddr: 0x100022FAC, symSize: 0x3C }
  - { offsetInCU: 0x1D8A9, offset: 0x1D8A9, size: 0x8, addend: 0x0, symName: __ZNSt3__128__copy_backward_trivial_implB8ue170006IP4trieIiES3_EENS_4pairIPT_PT0_EES6_S6_S8_, symObjAddr: 0x20B5C, symBinAddr: 0x100022FE8, symSize: 0x90 }
  - { offsetInCU: 0x1D911, offset: 0x1D911, size: 0x8, addend: 0x0, symName: __ZNSt3__119__constexpr_memmoveB8ue170006IP4trieIiES3_Li0EEEPT_S5_PT0_NS_15__element_countE, symObjAddr: 0x20BEC, symBinAddr: 0x100023078, symSize: 0x64 }
  - { offsetInCU: 0x1D97F, offset: 0x1D97F, size: 0x8, addend: 0x0, symName: __ZNSt3__19make_pairB8ue170006IRPP4trieIiES5_EENS_4pairINS_18__unwrap_ref_decayIT_E4typeENS7_IT0_E4typeEEEOS8_OSB_, symObjAddr: 0x20C50, symBinAddr: 0x1000230DC, symSize: 0x38 }
  - { offsetInCU: 0x1DA21, offset: 0x1DA21, size: 0x8, addend: 0x0, symName: __ZNSt3__14moveB8ue170006IPP4trieIiES4_EET0_T_S6_S5_, symObjAddr: 0x20DDC, symBinAddr: 0x100023268, symSize: 0x40 }
  - { offsetInCU: 0x1DA7B, offset: 0x1DA7B, size: 0x8, addend: 0x0, symName: __ZNSt3__16__moveB8ue170006INS_17_ClassicAlgPolicyEPP4trieIiES5_S5_EENS_4pairIT0_T2_EES7_T1_S8_, symObjAddr: 0x20EB0, symBinAddr: 0x10002333C, symSize: 0x44 }
  - { offsetInCU: 0x1DAE7, offset: 0x1DAE7, size: 0x8, addend: 0x0, symName: __ZNSt3__123__dispatch_copy_or_moveB8ue170006INS_17_ClassicAlgPolicyENS_11__move_loopIS1_EENS_14__move_trivialEPP4trieIiES8_S8_EENS_4pairIT2_T4_EESA_T3_SB_, symObjAddr: 0x20EF4, symBinAddr: 0x100023380, symSize: 0x44 }
  - { offsetInCU: 0x1DB65, offset: 0x1DB65, size: 0x8, addend: 0x0, symName: __ZNSt3__121__unwrap_and_dispatchB8ue170006INS_10__overloadINS_11__move_loopINS_17_ClassicAlgPolicyEEENS_14__move_trivialEEEPP4trieIiESA_SA_Li0EEENS_4pairIT0_T2_EESC_T1_SD_, symObjAddr: 0x20F38, symBinAddr: 0x1000233C4, symSize: 0xB4 }
  - { offsetInCU: 0x1DBF3, offset: 0x1DBF3, size: 0x8, addend: 0x0, symName: __ZNSt3__119__copy_trivial_implB8ue170006IP4trieIiES3_EENS_4pairIPT_PT0_EES6_S6_S8_, symObjAddr: 0x21034, symBinAddr: 0x1000234C0, symSize: 0x80 }
  - { offsetInCU: 0x1DC5B, offset: 0x1DC5B, size: 0x8, addend: 0x0, symName: __ZNSt3__19make_pairB8ue170006IRPP4trieIiES4_EENS_4pairINS_18__unwrap_ref_decayIT_E4typeENS7_IT0_E4typeEEEOS8_OSB_, symObjAddr: 0x210B4, symBinAddr: 0x100023540, symSize: 0x38 }
  - { offsetInCU: 0x1DCAA, offset: 0x1DCAA, size: 0x8, addend: 0x0, symName: __ZNSt3__18distanceB8ue170006INS_13move_iteratorIPP4trieIiEEEEENS_15iterator_traitsIT_E15difference_typeES8_S8_, symObjAddr: 0x21238, symBinAddr: 0x1000236C4, symSize: 0x3C }
  - { offsetInCU: 0x1DCED, offset: 0x1DCED, size: 0x8, addend: 0x0, symName: __ZNSt3__110__distanceB8ue170006INS_13move_iteratorIPP4trieIiEEEEENS_15iterator_traitsIT_E15difference_typeES8_S8_NS_26random_access_iterator_tagE, symObjAddr: 0x21378, symBinAddr: 0x100023804, symSize: 0x30 }
  - { offsetInCU: 0x1DD3A, offset: 0x1DD3A, size: 0x8, addend: 0x0, symName: __ZNSt3__1miB8ue170006IPP4trieIiES4_EEDTmicldtfp_4baseEcldtfp0_4baseEERKNS_13move_iteratorIT_EERKNS6_IT0_EE, symObjAddr: 0x213A8, symBinAddr: 0x100023834, symSize: 0x48 }
  - { offsetInCU: 0x1DD89, offset: 0x1DD89, size: 0x8, addend: 0x0, symName: __ZNSt3__142__uninitialized_allocator_move_if_noexceptB8ue170006INS_9allocatorIP4trieIiEEEPS4_S6_S4_vEET1_RT_T0_SA_S7_, symObjAddr: 0x21428, symBinAddr: 0x1000238B4, symSize: 0x38 }
  - { offsetInCU: 0x1DE05, offset: 0x1DE05, size: 0x8, addend: 0x0, symName: __ZNSt3__14sortB8ue170006INS_11__wrap_iterIPP4trieIiEEEZN3bagIS3_E7reorderEvEUlPKS3_SA_E_EEvT_SC_T0_, symObjAddr: 0x21988, symBinAddr: 0x100023E14, symSize: 0x40 }
  - { offsetInCU: 0x1DE5F, offset: 0x1DE5F, size: 0x8, addend: 0x0, symName: __ZNSt3__111__sort_implB8ue170006INS_17_ClassicAlgPolicyENS_11__wrap_iterIPP4trieIiEEEZN3bagIS4_E7reorderEvEUlPKS4_SB_E_EEvT0_SD_RT1_, symObjAddr: 0x219C8, symBinAddr: 0x100023E54, symSize: 0xA8 }
  - { offsetInCU: 0x1DEC2, offset: 0x1DEC2, size: 0x8, addend: 0x0, symName: __ZNSt3__123__debug_randomize_rangeB8ue170006INS_17_ClassicAlgPolicyENS_11__wrap_iterIPP4trieIiEEES7_EEvT0_T1_, symObjAddr: 0x21A70, symBinAddr: 0x100023EFC, symSize: 0x14 }
  - { offsetInCU: 0x1DF13, offset: 0x1DF13, size: 0x8, addend: 0x0, symName: __ZNSt3__115__sort_dispatchB8ue170006INS_17_ClassicAlgPolicyEPP4trieIiEZN3bagIS3_E7reorderEvEUlPKS3_S9_E_EEvT0_SB_RT1_, symObjAddr: 0x21A84, symBinAddr: 0x100023F10, symSize: 0x64 }
  - { offsetInCU: 0x1DF91, offset: 0x1DF91, size: 0x8, addend: 0x0, symName: __ZNSt3__113__unwrap_iterB8ue170006INS_11__wrap_iterIPP4trieIiEEENS_18__unwrap_iter_implIS6_Lb1EEELi0EEEDTclsrT0_8__unwrapclsr3stdE7declvalIT_EEEESA_, symObjAddr: 0x21AE8, symBinAddr: 0x100023F74, symSize: 0x2C }
  - { offsetInCU: 0x1DFD5, offset: 0x1DFD5, size: 0x8, addend: 0x0, symName: __ZNSt3__135__check_strict_weak_ordering_sortedB8ue170006IPP4trieIiEZN3bagIS2_E7reorderEvEUlPKS2_S8_E_EEvT_SA_RT0_, symObjAddr: 0x21B14, symBinAddr: 0x100023FA0, symSize: 0x18 }
  - { offsetInCU: 0x1E02B, offset: 0x1E02B, size: 0x8, addend: 0x0, symName: __ZNSt3__124__sort3_maybe_branchlessB8ue170006INS_17_ClassicAlgPolicyERZN3bagI4trieIiEE7reorderEvEUlPKS4_S7_E_PPS4_EENS_9enable_ifIXntsr21__use_branchless_sortIT0_T1_EE5valueEvE4typeESE_SE_SE_SD_, symObjAddr: 0x22008, symBinAddr: 0x100024494, symSize: 0x3C }
  - { offsetInCU: 0x1E09C, offset: 0x1E09C, size: 0x8, addend: 0x0, symName: __ZNSt3__124__sort4_maybe_branchlessB8ue170006INS_17_ClassicAlgPolicyERZN3bagI4trieIiEE7reorderEvEUlPKS4_S7_E_PPS4_EENS_9enable_ifIXntsr21__use_branchless_sortIT0_T1_EE5valueEvE4typeESE_SE_SE_SE_SD_, symObjAddr: 0x22044, symBinAddr: 0x1000244D0, symSize: 0x44 }
  - { offsetInCU: 0x1E11B, offset: 0x1E11B, size: 0x8, addend: 0x0, symName: __ZNSt3__124__sort5_maybe_branchlessB8ue170006INS_17_ClassicAlgPolicyERZN3bagI4trieIiEE7reorderEvEUlPKS4_S7_E_PPS4_EENS_9enable_ifIXntsr21__use_branchless_sortIT0_T1_EE5valueEvE4typeESE_SE_SE_SE_SE_SD_, symObjAddr: 0x22088, symBinAddr: 0x100024514, symSize: 0x4C }
  - { offsetInCU: 0x1E1A8, offset: 0x1E1A8, size: 0x8, addend: 0x0, symName: __ZNSt3__116__insertion_sortB8ue170006INS_17_ClassicAlgPolicyERZN3bagI4trieIiEE7reorderEvEUlPKS4_S7_E_PPS4_EEvT1_SC_T0_, symObjAddr: 0x220D4, symBinAddr: 0x100024560, symSize: 0x15C }
  - { offsetInCU: 0x1E26B, offset: 0x1E26B, size: 0x8, addend: 0x0, symName: __ZNSt3__114__partial_sortB8ue170006INS_17_ClassicAlgPolicyERZN3bagI4trieIiEE7reorderEvEUlPKS4_S7_E_PPS4_SB_EET1_SC_SC_T2_RT0_, symObjAddr: 0x2235C, symBinAddr: 0x1000247E8, symSize: 0x94 }
  - { offsetInCU: 0x1E2F3, offset: 0x1E2F3, size: 0x8, addend: 0x0, symName: __ZNSt3__17__sort3B8ue170006INS_17_ClassicAlgPolicyERZN3bagI4trieIiEE7reorderEvEUlPKS4_S7_E_PPS4_EEjT1_SC_SC_T0_, symObjAddr: 0x223F0, symBinAddr: 0x10002487C, symSize: 0x16C }
  - { offsetInCU: 0x1E372, offset: 0x1E372, size: 0x8, addend: 0x0, symName: __ZNSt3__19iter_swapB8ue170006IPP4trieIiES4_EEvT_T0_, symObjAddr: 0x23040, symBinAddr: 0x1000254CC, symSize: 0x2C }
  - { offsetInCU: 0x1E3BA, offset: 0x1E3BA, size: 0x8, addend: 0x0, symName: __ZNSt3__14swapB8ue170006IP4trieIiEEENS_9enable_ifIXaasr21is_move_constructibleIT_EE5valuesr18is_move_assignableIS5_EE5valueEvE4typeERS5_S8_, symObjAddr: 0x2306C, symBinAddr: 0x1000254F8, symSize: 0x3C }
  - { offsetInCU: 0x1E40B, offset: 0x1E40B, size: 0x8, addend: 0x0, symName: __ZNSt3__17__sort4B8ue170006INS_17_ClassicAlgPolicyERZN3bagI4trieIiEE7reorderEvEUlPKS4_S7_E_PPS4_EEvT1_SC_SC_SC_T0_, symObjAddr: 0x230A8, symBinAddr: 0x100025534, symSize: 0xD0 }
  - { offsetInCU: 0x1E486, offset: 0x1E486, size: 0x8, addend: 0x0, symName: __ZNSt3__17__sort5B8ue170006INS_17_ClassicAlgPolicyERZN3bagI4trieIiEE7reorderEvEUlPKS4_S7_E_PPS4_EEvT1_SC_SC_SC_SC_T0_, symObjAddr: 0x23178, symBinAddr: 0x100025604, symSize: 0x108 }
  - { offsetInCU: 0x1E50F, offset: 0x1E50F, size: 0x8, addend: 0x0, symName: __ZNSt3__123__debug_randomize_rangeB8ue170006INS_17_ClassicAlgPolicyEPP4trieIiES5_EEvT0_T1_, symObjAddr: 0x232C4, symBinAddr: 0x100025750, symSize: 0x14 }
  - { offsetInCU: 0x1E560, offset: 0x1E560, size: 0x8, addend: 0x0, symName: __ZNSt3__119__partial_sort_implB8ue170006INS_17_ClassicAlgPolicyERZN3bagI4trieIiEE7reorderEvEUlPKS4_S7_E_PPS4_SB_EET1_SC_SC_T2_OT0_, symObjAddr: 0x232D8, symBinAddr: 0x100025764, symSize: 0x118 }
  - { offsetInCU: 0x1E5F6, offset: 0x1E5F6, size: 0x8, addend: 0x0, symName: __ZNSt3__111__make_heapB8ue170006INS_17_ClassicAlgPolicyERZN3bagI4trieIiEE7reorderEvEUlPKS4_S7_E_PPS4_EEvT1_SC_OT0_, symObjAddr: 0x233F0, symBinAddr: 0x10002587C, symSize: 0xB8 }
  - { offsetInCU: 0x1E698, offset: 0x1E698, size: 0x8, addend: 0x0, symName: __ZNSt3__111__sort_heapB8ue170006INS_17_ClassicAlgPolicyERZN3bagI4trieIiEE7reorderEvEUlPKS4_S7_E_PPS4_EEvT1_SC_OT0_, symObjAddr: 0x236C8, symBinAddr: 0x100025B54, symSize: 0xA8 }
  - { offsetInCU: 0x1E73A, offset: 0x1E73A, size: 0x8, addend: 0x0, symName: __ZNSt3__110__pop_heapB8ue170006INS_17_ClassicAlgPolicyEZN3bagI4trieIiEE7reorderEvEUlPKS4_S7_E_PPS4_EEvT1_SB_RT0_NS_15iterator_traitsISB_E15difference_typeE, symObjAddr: 0x23770, symBinAddr: 0x100025BFC, symSize: 0xF4 }
  - { offsetInCU: 0x1E7EA, offset: 0x1E7EA, size: 0x8, addend: 0x0, symName: __ZNSt3__19__sift_upB8ue170006INS_17_ClassicAlgPolicyERZN3bagI4trieIiEE7reorderEvEUlPKS4_S7_E_PPS4_EEvT1_SC_OT0_NS_15iterator_traitsISC_E15difference_typeE, symObjAddr: 0x23968, symBinAddr: 0x100025DF4, symSize: 0x128 }
  - { offsetInCU: 0x1E89A, offset: 0x1E89A, size: 0x8, addend: 0x0, symName: __ZNSt3__122__populate_left_bitsetB8ue170006IRZN3bagI4trieIiEE7reorderEvEUlPKS3_S6_E_PPS3_S9_EEvT0_T_RT1_Ry, symObjAddr: 0x23A90, symBinAddr: 0x100025F1C, symSize: 0xB0 }
  - { offsetInCU: 0x1E955, offset: 0x1E955, size: 0x8, addend: 0x0, symName: __ZNSt3__123__populate_right_bitsetB8ue170006IRZN3bagI4trieIiEE7reorderEvEUlPKS3_S6_E_PPS3_S9_EEvT0_T_RT1_Ry, symObjAddr: 0x23B40, symBinAddr: 0x100025FCC, symSize: 0xA8 }
  - { offsetInCU: 0x1EA10, offset: 0x1EA10, size: 0x8, addend: 0x0, symName: __ZNSt3__117__swap_bitmap_posB8ue170006INS_17_ClassicAlgPolicyEPP4trieIiEEEvT0_S6_RyS7_, symObjAddr: 0x23BE8, symBinAddr: 0x100026074, symSize: 0x100 }
  - { offsetInCU: 0x1EAB1, offset: 0x1EAB1, size: 0x8, addend: 0x0, symName: __ZNSt3__133__bitset_partition_partial_blocksB8ue170006INS_17_ClassicAlgPolicyERZN3bagI4trieIiEE7reorderEvEUlPKS4_S7_E_PPS4_SA_EEvRT1_SD_T0_RT2_RySH_, symObjAddr: 0x23CE8, symBinAddr: 0x100026174, symSize: 0x2F8 }
  - { offsetInCU: 0x1EC32, offset: 0x1EC32, size: 0x8, addend: 0x0, symName: __ZNSt3__19make_pairB8ue170006IRPP4trieIiERbEENS_4pairINS_18__unwrap_ref_decayIT_E4typeENS8_IT0_E4typeEEEOS9_OSC_, symObjAddr: 0x241C0, symBinAddr: 0x10002664C, symSize: 0x38 }
  - { offsetInCU: 0x1EDA8, offset: 0x1EDA8, size: 0x8, addend: 0x0, symName: __ZNSt3__112__to_addressB8ue170006INS_11__wrap_iterIPP4trieIiEEEvEEu7__decayIDTclsr19__to_address_helperIT_EE6__callclsr3stdE7declvalIRKS7_EEEEES9_, symObjAddr: 0x242C8, symBinAddr: 0x100026754, symSize: 0x24 }
  - { offsetInCU: 0x1EE83, offset: 0x1EE83, size: 0x8, addend: 0x0, symName: __ZNSt3__122__make_exception_guardB8ue170006INS_6vectorIP4trieIiENS_9allocatorIS4_EEE16__destroy_vectorEEENS_28__exception_guard_exceptionsIT_EESA_, symObjAddr: 0x245AC, symBinAddr: 0x100026A38, symSize: 0x40 }
  - { offsetInCU: 0x1EEB8, offset: 0x1EEB8, size: 0x8, addend: 0x0, symName: __ZNSt3__130__uninitialized_allocator_copyB8ue170006INS_9allocatorIP4trieIiEEEPS4_S6_S6_EET2_RT_T0_T1_S7_, symObjAddr: 0x247C4, symBinAddr: 0x100026C50, symSize: 0x80 }
  - { offsetInCU: 0x1EF55, offset: 0x1EF55, size: 0x8, addend: 0x0, symName: __ZNSt3__135__uninitialized_allocator_copy_implB8ue170006INS_9allocatorIP4trieIiEEES4_S4_S4_LPv0EEEPT2_RT_PT0_SC_S8_, symObjAddr: 0x24844, symBinAddr: 0x100026CD0, symSize: 0x38 }
  - { offsetInCU: 0x1EFD6, offset: 0x1EFD6, size: 0x8, addend: 0x0, symName: __ZNSt3__14copyB8ue170006IPP4trieIiES4_EET0_T_S6_S5_, symObjAddr: 0x2487C, symBinAddr: 0x100026D08, symSize: 0x40 }
  - { offsetInCU: 0x1F030, offset: 0x1F030, size: 0x8, addend: 0x0, symName: __ZNSt3__16__copyB8ue170006INS_17_ClassicAlgPolicyEPP4trieIiES5_S5_EENS_4pairIT0_T2_EES7_T1_S8_, symObjAddr: 0x248BC, symBinAddr: 0x100026D48, symSize: 0x44 }
  - { offsetInCU: 0x1F09C, offset: 0x1F09C, size: 0x8, addend: 0x0, symName: __ZNSt3__123__dispatch_copy_or_moveB8ue170006INS_17_ClassicAlgPolicyENS_11__copy_loopIS1_EENS_14__copy_trivialEPP4trieIiES8_S8_EENS_4pairIT2_T4_EESA_T3_SB_, symObjAddr: 0x24900, symBinAddr: 0x100026D8C, symSize: 0x44 }
  - { offsetInCU: 0x1F11A, offset: 0x1F11A, size: 0x8, addend: 0x0, symName: __ZNSt3__121__unwrap_and_dispatchB8ue170006INS_10__overloadINS_11__copy_loopINS_17_ClassicAlgPolicyEEENS_14__copy_trivialEEEPP4trieIiESA_SA_Li0EEENS_4pairIT0_T2_EESC_T1_SD_, symObjAddr: 0x24944, symBinAddr: 0x100026DD0, symSize: 0xB4 }
  - { offsetInCU: 0x1F1A8, offset: 0x1F1A8, size: 0x8, addend: 0x0, symName: __ZNSt3__18distanceB8ue170006IPP4trieIiEEENS_15iterator_traitsIT_E15difference_typeES6_S6_, symObjAddr: 0x24D70, symBinAddr: 0x1000271FC, symSize: 0x2C }
  - { offsetInCU: 0x1F1EB, offset: 0x1F1EB, size: 0x8, addend: 0x0, symName: __ZNSt3__14nextB8ue170006IPP4trieIiEEENS_9enable_ifIXsr29__has_input_iterator_categoryIT_EE5valueES6_E4typeES6_NS_15iterator_traitsIS6_E15difference_typeE, symObjAddr: 0x24D9C, symBinAddr: 0x100027228, symSize: 0x34 }
  - { offsetInCU: 0x1F22E, offset: 0x1F22E, size: 0x8, addend: 0x0, symName: __ZNSt3__19__advanceB8ue170006IPP4trieIiEEEvRT_NS_15iterator_traitsIS5_E15difference_typeENS_26random_access_iterator_tagE, symObjAddr: 0x24EE8, symBinAddr: 0x100027374, symSize: 0x28 }
  - { offsetInCU: 0x1F277, offset: 0x1F277, size: 0x8, addend: 0x0, symName: __ZNSt3__110__distanceB8ue170006IPP4trieIiEEENS_15iterator_traitsIT_E15difference_typeES6_S6_NS_26random_access_iterator_tagE, symObjAddr: 0x24F10, symBinAddr: 0x10002739C, symSize: 0x28 }
  - { offsetInCU: 0x1F2C4, offset: 0x1F2C4, size: 0x8, addend: 0x0, symName: __ZNSt3__1lsB8ue170006INS_11char_traitsIcEEEERNS_13basic_ostreamIcT_EES6_PKc, symObjAddr: 0x25B00, symBinAddr: 0x100027F8C, symSize: 0x48 }
  - { offsetInCU: 0x1FD3D, offset: 0x1FD3D, size: 0x8, addend: 0x0, symName: __ZSt28__throw_bad_array_new_lengthB8ue170006v, symObjAddr: 0xD61C, symBinAddr: 0x10000FAA8, symSize: 0x34 }
  - { offsetInCU: 0x21647, offset: 0x21647, size: 0x8, addend: 0x0, symName: __ZNSt3__16vectorIP4trieIcENS_9allocatorIS3_EEE26__swap_out_circular_bufferERNS_14__split_bufferIS3_RS5_EE, symObjAddr: 0xCF1C, symBinAddr: 0x10000F3A8, symSize: 0x110 }
  - { offsetInCU: 0x21796, offset: 0x21796, size: 0x8, addend: 0x0, symName: __ZNSt3__16vectorIP4trieIcENS_9allocatorIS3_EEE26__swap_out_circular_bufferERNS_14__split_bufferIS3_RS5_EEPS3_, symObjAddr: 0x114E4, symBinAddr: 0x100013970, symSize: 0x14C }
  - { offsetInCU: 0x22050, offset: 0x22050, size: 0x8, addend: 0x0, symName: __ZNSt3__16vectorIP4trieINS_12basic_stringIcNS_11char_traitsIcEENS_9allocatorIcEEEEENS5_IS9_EEE26__swap_out_circular_bufferERNS_14__split_bufferIS9_RSA_EE, symObjAddr: 0x16448, symBinAddr: 0x1000188D4, symSize: 0x110 }
  - { offsetInCU: 0x220C3, offset: 0x220C3, size: 0x8, addend: 0x0, symName: __ZNSt3__16vectorIP4trieINS_12basic_stringIcNS_11char_traitsIcEENS_9allocatorIcEEEEENS5_IS9_EEE26__swap_out_circular_bufferERNS_14__split_bufferIS9_RSA_EEPS9_, symObjAddr: 0x1798C, symBinAddr: 0x100019E18, symSize: 0x14C }
  - { offsetInCU: 0x22988, offset: 0x22988, size: 0x8, addend: 0x0, symName: __ZNSt3__16vectorIP4trieIiENS_9allocatorIS3_EEE26__swap_out_circular_bufferERNS_14__split_bufferIS3_RS5_EE, symObjAddr: 0x1F3A0, symBinAddr: 0x10002182C, symSize: 0x110 }
  - { offsetInCU: 0x229FB, offset: 0x229FB, size: 0x8, addend: 0x0, symName: __ZNSt3__16vectorIP4trieIiENS_9allocatorIS3_EEE26__swap_out_circular_bufferERNS_14__split_bufferIS3_RS5_EEPS3_, symObjAddr: 0x206B4, symBinAddr: 0x100022B40, symSize: 0x14C }
  - { offsetInCU: 0x24D5F, offset: 0x24D5F, size: 0x8, addend: 0x0, symName: __Z11getNextWordRNSt3__113basic_istreamIcNS_11char_traitsIcEEEEc, symObjAddr: 0x0, symBinAddr: 0x10000248C, symSize: 0x274 }
  - { offsetInCU: 0x24DB7, offset: 0x24DB7, size: 0x8, addend: 0x0, symName: __ZNSt3__112basic_stringIcNS_11char_traitsIcEENS_9allocatorIcEEEC1B8ue170006Ev, symObjAddr: 0x274, symBinAddr: 0x100002700, symSize: 0x2C }
  - { offsetInCU: 0x24DE1, offset: 0x24DE1, size: 0x8, addend: 0x0, symName: __ZNKSt3__19basic_iosIcNS_11char_traitsIcEEE3eofB8ue170006Ev, symObjAddr: 0x2A0, symBinAddr: 0x10000272C, symSize: 0x28 }
  - { offsetInCU: 0x24E0C, offset: 0x24E0C, size: 0x8, addend: 0x0, symName: __ZNSt3__112basic_stringIcNS_11char_traitsIcEENS_9allocatorIcEEEC1B8ue170006ILi0EEEPKc, symObjAddr: 0x2C8, symBinAddr: 0x100002754, symSize: 0x34 }
  - { offsetInCU: 0x24E4B, offset: 0x24E4B, size: 0x8, addend: 0x0, symName: __ZN16parser_exceptionC1ERKNSt3__112basic_stringIcNS0_11char_traitsIcEENS0_9allocatorIcEEEE, symObjAddr: 0x2FC, symBinAddr: 0x100002788, symSize: 0x34 }
  - { offsetInCU: 0x24E83, offset: 0x24E83, size: 0x8, addend: 0x0, symName: __ZN16parser_exceptionD1Ev, symObjAddr: 0x330, symBinAddr: 0x1000027BC, symSize: 0x2C }
  - { offsetInCU: 0x24EAE, offset: 0x24EAE, size: 0x8, addend: 0x0, symName: __Z17count_error_filesRKNSt3__14__fs10filesystem4pathENS_12basic_stringIcNS_11char_traitsIcEENS_9allocatorIcEEEE, symObjAddr: 0x4EC, symBinAddr: 0x100002978, symSize: 0x374 }
  - { offsetInCU: 0x24F44, offset: 0x24F44, size: 0x8, addend: 0x0, symName: __ZNSt3__14__fs10filesystem18directory_iteratorC1B8ue170006ERKNS1_4pathE, symObjAddr: 0x860, symBinAddr: 0x100002CEC, symSize: 0x3C }
  - { offsetInCU: 0x24F7C, offset: 0x24F7C, size: 0x8, addend: 0x0, symName: __ZNSt3__14__fs10filesystem18directory_iteratorC1B8ue170006ERKS2_, symObjAddr: 0x8D4, symBinAddr: 0x100002D60, symSize: 0x34 }
  - { offsetInCU: 0x24FB0, offset: 0x24FB0, size: 0x8, addend: 0x0, symName: __ZNSt3__14__fs10filesystem18directory_iteratorD1B8ue170006Ev, symObjAddr: 0x908, symBinAddr: 0x100002D94, symSize: 0x2C }
  - { offsetInCU: 0x24FDA, offset: 0x24FDA, size: 0x8, addend: 0x0, symName: __ZNKSt3__14__fs10filesystem18directory_iteratordeB8ue170006Ev, symObjAddr: 0x99C, symBinAddr: 0x100002E28, symSize: 0x24 }
  - { offsetInCU: 0x25000, offset: 0x25000, size: 0x8, addend: 0x0, symName: __ZNKSt3__14__fs10filesystem15directory_entry15is_regular_fileB8ue170006Ev, symObjAddr: 0x9C0, symBinAddr: 0x100002E4C, symSize: 0x38 }
  - { offsetInCU: 0x25026, offset: 0x25026, size: 0x8, addend: 0x0, symName: __ZNKSt3__14__fs10filesystem15directory_entry4pathB8ue170006Ev, symObjAddr: 0x9F8, symBinAddr: 0x100002E84, symSize: 0x14 }
  - { offsetInCU: 0x2504C, offset: 0x2504C, size: 0x8, addend: 0x0, symName: __ZNKSt3__14__fs10filesystem4path8filenameB8ue170006Ev, symObjAddr: 0xA0C, symBinAddr: 0x100002E98, symSize: 0x60 }
  - { offsetInCU: 0x25072, offset: 0x25072, size: 0x8, addend: 0x0, symName: __ZNKSt3__14__fs10filesystem4path6stringB8ue170006Ev, symObjAddr: 0xA6C, symBinAddr: 0x100002EF8, symSize: 0x38 }
  - { offsetInCU: 0x25098, offset: 0x25098, size: 0x8, addend: 0x0, symName: __ZNKSt3__112basic_stringIcNS_11char_traitsIcEENS_9allocatorIcEEE4findB8ue170006EPKcm, symObjAddr: 0xAA4, symBinAddr: 0x100002F30, symSize: 0x74 }
  - { offsetInCU: 0x250DE, offset: 0x250DE, size: 0x8, addend: 0x0, symName: __ZNKSt3__112basic_stringIcNS_11char_traitsIcEENS_9allocatorIcEEE4findB8ue170006ERKS5_m, symObjAddr: 0xB18, symBinAddr: 0x100002FA4, symSize: 0x78 }
  - { offsetInCU: 0x25124, offset: 0x25124, size: 0x8, addend: 0x0, symName: __ZNSt3__14__fs10filesystem4pathD1B8ue170006Ev, symObjAddr: 0xB90, symBinAddr: 0x10000301C, symSize: 0x2C }
  - { offsetInCU: 0x2514E, offset: 0x2514E, size: 0x8, addend: 0x0, symName: __ZNSt3__14__fs10filesystem18directory_iteratorppB8ue170006Ev, symObjAddr: 0xBBC, symBinAddr: 0x100003048, symSize: 0x28 }
  - { offsetInCU: 0x25173, offset: 0x25173, size: 0x8, addend: 0x0, symName: __Z21count_non_error_filesRKNSt3__14__fs10filesystem4pathENS_12basic_stringIcNS_11char_traitsIcEENS_9allocatorIcEEEE, symObjAddr: 0xBE4, symBinAddr: 0x100003070, symSize: 0x374 }
  - { offsetInCU: 0x25208, offset: 0x25208, size: 0x8, addend: 0x0, symName: __Z23test_parsing_validationv, symObjAddr: 0xF58, symBinAddr: 0x1000033E4, symSize: 0x7B0 }
  - { offsetInCU: 0x252CA, offset: 0x252CA, size: 0x8, addend: 0x0, symName: __ZNSt3__14__fs10filesystem4pathC1B8ue170006EONS_12basic_stringIcNS_11char_traitsIcEENS_9allocatorIcEEEENS2_6formatE, symObjAddr: 0x1748, symBinAddr: 0x100003BD4, symSize: 0x3C }
  - { offsetInCU: 0x2530D, offset: 0x2530D, size: 0x8, addend: 0x0, symName: __Z30parsing_should_throw_exceptionIcEvNSt3__112basic_stringIcNS0_11char_traitsIcEENS0_9allocatorIcEEEET_, symObjAddr: 0x1784, symBinAddr: 0x100003C10, symSize: 0xEC }
  - { offsetInCU: 0x25370, offset: 0x25370, size: 0x8, addend: 0x0, symName: __Z30parsing_should_throw_exceptionINSt3__112basic_stringIcNS0_11char_traitsIcEENS0_9allocatorIcEEEEEvS6_T_, symObjAddr: 0x18B4, symBinAddr: 0x100003D40, symSize: 0xEC }
  - { offsetInCU: 0x253D4, offset: 0x253D4, size: 0x8, addend: 0x0, symName: __Z23parsing_should_completeIcEvNSt3__112basic_stringIcNS0_11char_traitsIcEENS0_9allocatorIcEEEET_, symObjAddr: 0x19A0, symBinAddr: 0x100003E2C, symSize: 0x154 }
  - { offsetInCU: 0x25436, offset: 0x25436, size: 0x8, addend: 0x0, symName: __Z23parsing_should_completeINSt3__112basic_stringIcNS0_11char_traitsIcEENS0_9allocatorIcEEEEEvS6_T_, symObjAddr: 0x1AF4, symBinAddr: 0x100003F80, symSize: 0x154 }
  - { offsetInCU: 0x25499, offset: 0x25499, size: 0x8, addend: 0x0, symName: __Z18test_prefix_searchv, symObjAddr: 0x1C48, symBinAddr: 0x1000040D4, symSize: 0x6B0 }
  - { offsetInCU: 0x254F4, offset: 0x254F4, size: 0x8, addend: 0x0, symName: __Z9load_trieIcE4trieIT_ENSt3__112basic_stringIcNS3_11char_traitsIcEENS3_9allocatorIcEEEE, symObjAddr: 0x22F8, symBinAddr: 0x100004784, symSize: 0x2A4 }
  - { offsetInCU: 0x2555A, offset: 0x2555A, size: 0x8, addend: 0x0, symName: __ZNSt3__16vectorIcNS_9allocatorIcEEEC1B8ue170006ESt16initializer_listIcE, symObjAddr: 0x259C, symBinAddr: 0x100004A28, symSize: 0x3C }
  - { offsetInCU: 0x25595, offset: 0x25595, size: 0x8, addend: 0x0, symName: __ZN4trieIcEixERKNSt3__16vectorIcNS1_9allocatorIcEEEE, symObjAddr: 0x25D8, symBinAddr: 0x100004A64, symSize: 0xD8 }
  - { offsetInCU: 0x255F8, offset: 0x255F8, size: 0x8, addend: 0x0, symName: __ZNK4trieIcEeqERKS0_, symObjAddr: 0x26B0, symBinAddr: 0x100004B3C, symSize: 0xAC }
  - { offsetInCU: 0x2562E, offset: 0x2562E, size: 0x8, addend: 0x0, symName: __ZN4trieIcE12get_childrenEv, symObjAddr: 0x275C, symBinAddr: 0x100004BE8, symSize: 0x18 }
  - { offsetInCU: 0x25656, offset: 0x25656, size: 0x8, addend: 0x0, symName: __ZNK3bagI4trieIcEE3getEi, symObjAddr: 0x2774, symBinAddr: 0x100004C00, symSize: 0x30 }
  - { offsetInCU: 0x2568A, offset: 0x2568A, size: 0x8, addend: 0x0, symName: __ZNSt3__16vectorIcNS_9allocatorIcEEEaSB8ue170006ESt16initializer_listIcE, symObjAddr: 0x27A4, symBinAddr: 0x100004C30, symSize: 0x60 }
  - { offsetInCU: 0x256BF, offset: 0x256BF, size: 0x8, addend: 0x0, symName: __ZNK4trieIcEixERKNSt3__16vectorIcNS1_9allocatorIcEEEE, symObjAddr: 0x2804, symBinAddr: 0x100004C90, symSize: 0x110 }
  - { offsetInCU: 0x25722, offset: 0x25722, size: 0x8, addend: 0x0, symName: __ZN4trieIcED1Ev, symObjAddr: 0x2914, symBinAddr: 0x100004DA0, symSize: 0x2C }
  - { offsetInCU: 0x2574E, offset: 0x2574E, size: 0x8, addend: 0x0, symName: __ZNSt3__16vectorIcNS_9allocatorIcEEED1B8ue170006Ev, symObjAddr: 0x2940, symBinAddr: 0x100004DCC, symSize: 0x2C }
  - { offsetInCU: 0x25778, offset: 0x25778, size: 0x8, addend: 0x0, symName: __ZNK16parser_exception4whatEv, symObjAddr: 0x29B8, symBinAddr: 0x100004E44, symSize: 0x38 }
  - { offsetInCU: 0x2579E, offset: 0x2579E, size: 0x8, addend: 0x0, symName: __ZNSt3__113basic_ostreamIcNS_11char_traitsIcEEElsB8ue170006EPFRS3_S4_E, symObjAddr: 0x29F0, symBinAddr: 0x100004E7C, symSize: 0x2C }
  - { offsetInCU: 0x257D1, offset: 0x257D1, size: 0x8, addend: 0x0, symName: __Z12testAddChildv, symObjAddr: 0x2A80, symBinAddr: 0x100004F0C, symSize: 0x1F0 }
  - { offsetInCU: 0x2582B, offset: 0x2582B, size: 0x8, addend: 0x0, symName: __ZN4trieIcEC1Ev, symObjAddr: 0x2C70, symBinAddr: 0x1000050FC, symSize: 0x2C }
  - { offsetInCU: 0x25857, offset: 0x25857, size: 0x8, addend: 0x0, symName: __ZN4trieIcE10set_parentEPS0_, symObjAddr: 0x2C9C, symBinAddr: 0x100005128, symSize: 0x20 }
  - { offsetInCU: 0x2588D, offset: 0x2588D, size: 0x8, addend: 0x0, symName: __ZN4trieIcE10set_weightEd, symObjAddr: 0x2CBC, symBinAddr: 0x100005148, symSize: 0x20 }
  - { offsetInCU: 0x258C3, offset: 0x258C3, size: 0x8, addend: 0x0, symName: __ZN4trieIcE9set_labelEPc, symObjAddr: 0x2CDC, symBinAddr: 0x100005168, symSize: 0xAC }
  - { offsetInCU: 0x25907, offset: 0x25907, size: 0x8, addend: 0x0, symName: __ZN4trieIcE9add_childERKS0_, symObjAddr: 0x2D88, symBinAddr: 0x100005214, symSize: 0x2B4 }
  - { offsetInCU: 0x2593D, offset: 0x2593D, size: 0x8, addend: 0x0, symName: __ZNK4trieIcE10get_weightEv, symObjAddr: 0x303C, symBinAddr: 0x1000054C8, symSize: 0x5C }
  - { offsetInCU: 0x25964, offset: 0x25964, size: 0x8, addend: 0x0, symName: __Z19testCopyConstructorv, symObjAddr: 0x30CC, symBinAddr: 0x100005558, symSize: 0x1E0 }
  - { offsetInCU: 0x259C8, offset: 0x259C8, size: 0x8, addend: 0x0, symName: __ZN4trieIcEC1Ed, symObjAddr: 0x32AC, symBinAddr: 0x100005738, symSize: 0x34 }
  - { offsetInCU: 0x25A01, offset: 0x25A01, size: 0x8, addend: 0x0, symName: __Z12tryEdgeCasesv, symObjAddr: 0x32E0, symBinAddr: 0x10000576C, symSize: 0x194 }
  - { offsetInCU: 0x25A5A, offset: 0x25A5A, size: 0x8, addend: 0x0, symName: __Z17testOperatorEqualv, symObjAddr: 0x3474, symBinAddr: 0x100005900, symSize: 0x4A4 }
  - { offsetInCU: 0x25B0F, offset: 0x25B0F, size: 0x8, addend: 0x0, symName: __Z18test_leaf_iteratorv, symObjAddr: 0x3918, symBinAddr: 0x100005DA4, symSize: 0x564 }
  - { offsetInCU: 0x25BA0, offset: 0x25BA0, size: 0x8, addend: 0x0, symName: __ZN4trieIcE13leaf_iteratorC1EPS0_, symObjAddr: 0x3E7C, symBinAddr: 0x100006308, symSize: 0x34 }
  - { offsetInCU: 0x25BDB, offset: 0x25BDB, size: 0x8, addend: 0x0, symName: __ZN4trieIcE5beginEv, symObjAddr: 0x3EB0, symBinAddr: 0x10000633C, symSize: 0x2C }
  - { offsetInCU: 0x25C04, offset: 0x25C04, size: 0x8, addend: 0x0, symName: __ZNK4trieIcE13leaf_iterator8get_leafEv, symObjAddr: 0x3EDC, symBinAddr: 0x100006368, symSize: 0x18 }
  - { offsetInCU: 0x25C2D, offset: 0x25C2D, size: 0x8, addend: 0x0, symName: __ZN4trieIcE3endEv, symObjAddr: 0x3EF4, symBinAddr: 0x100006380, symSize: 0x38 }
  - { offsetInCU: 0x25C74, offset: 0x25C74, size: 0x8, addend: 0x0, symName: __ZN4trieIcE13leaf_iteratorppEi, symObjAddr: 0x3F2C, symBinAddr: 0x1000063B8, symSize: 0x44 }
  - { offsetInCU: 0x25CB6, offset: 0x25CB6, size: 0x8, addend: 0x0, symName: __ZN4trieIcE13leaf_iteratorppEv, symObjAddr: 0x3F70, symBinAddr: 0x1000063FC, symSize: 0x38 }
  - { offsetInCU: 0x25CDF, offset: 0x25CDF, size: 0x8, addend: 0x0, symName: __ZNK4trieIcE13leaf_iteratoreqERKS1_, symObjAddr: 0x3FA8, symBinAddr: 0x100006434, symSize: 0x30 }
  - { offsetInCU: 0x25D15, offset: 0x25D15, size: 0x8, addend: 0x0, symName: __Z24test_const_leaf_iteratorv, symObjAddr: 0x3FD8, symBinAddr: 0x100006464, symSize: 0x5E4 }
  - { offsetInCU: 0x25DC4, offset: 0x25DC4, size: 0x8, addend: 0x0, symName: __ZNK4trieIcE5beginEv, symObjAddr: 0x45BC, symBinAddr: 0x100006A48, symSize: 0x2C }
  - { offsetInCU: 0x25DED, offset: 0x25DED, size: 0x8, addend: 0x0, symName: __ZNK4trieIcE12get_childrenEv, symObjAddr: 0x45E8, symBinAddr: 0x100006A74, symSize: 0x18 }
  - { offsetInCU: 0x25E15, offset: 0x25E15, size: 0x8, addend: 0x0, symName: __ZNK4trieIcE19const_leaf_iterator8get_leafEv, symObjAddr: 0x4600, symBinAddr: 0x100006A8C, symSize: 0x18 }
  - { offsetInCU: 0x25E3E, offset: 0x25E3E, size: 0x8, addend: 0x0, symName: __ZNK4trieIcE3endEv, symObjAddr: 0x4618, symBinAddr: 0x100006AA4, symSize: 0x38 }
  - { offsetInCU: 0x25E85, offset: 0x25E85, size: 0x8, addend: 0x0, symName: __ZN4trieIcE19const_leaf_iteratorppEi, symObjAddr: 0x4650, symBinAddr: 0x100006ADC, symSize: 0x44 }
  - { offsetInCU: 0x25EC7, offset: 0x25EC7, size: 0x8, addend: 0x0, symName: __ZN4trieIcE19const_leaf_iteratorppEv, symObjAddr: 0x4694, symBinAddr: 0x100006B20, symSize: 0x38 }
  - { offsetInCU: 0x25EF0, offset: 0x25EF0, size: 0x8, addend: 0x0, symName: __ZNK4trieIcE19const_leaf_iteratoreqERKS1_, symObjAddr: 0x46CC, symBinAddr: 0x100006B58, symSize: 0x30 }
  - { offsetInCU: 0x25F27, offset: 0x25F27, size: 0x8, addend: 0x0, symName: __ZNK4trieIcE19const_leaf_iteratorneERKS1_, symObjAddr: 0x46FC, symBinAddr: 0x100006B88, symSize: 0x34 }
  - { offsetInCU: 0x25F5D, offset: 0x25F5D, size: 0x8, addend: 0x0, symName: __Z18test_node_iteratorv, symObjAddr: 0x4730, symBinAddr: 0x100006BBC, symSize: 0x450 }
  - { offsetInCU: 0x25FCE, offset: 0x25FCE, size: 0x8, addend: 0x0, symName: __ZN4trieIcE4rootEv, symObjAddr: 0x4B80, symBinAddr: 0x10000700C, symSize: 0x60 }
  - { offsetInCU: 0x26015, offset: 0x26015, size: 0x8, addend: 0x0, symName: __ZN4trieIcE13node_iteratorC1EPS0_, symObjAddr: 0x4BE0, symBinAddr: 0x10000706C, symSize: 0x34 }
  - { offsetInCU: 0x26050, offset: 0x26050, size: 0x8, addend: 0x0, symName: __ZN4trieIcE9get_labelEv, symObjAddr: 0x4C14, symBinAddr: 0x1000070A0, symSize: 0x18 }
  - { offsetInCU: 0x26078, offset: 0x26078, size: 0x8, addend: 0x0, symName: __ZN4trieIcE13node_iteratorppEi, symObjAddr: 0x4C2C, symBinAddr: 0x1000070B8, symSize: 0x30 }
  - { offsetInCU: 0x260BA, offset: 0x260BA, size: 0x8, addend: 0x0, symName: __ZNK4trieIcE13node_iteratordeEv, symObjAddr: 0x4C5C, symBinAddr: 0x1000070E8, symSize: 0x1C }
  - { offsetInCU: 0x260E3, offset: 0x260E3, size: 0x8, addend: 0x0, symName: __ZN4trieIcE13node_iteratorppEv, symObjAddr: 0x4C78, symBinAddr: 0x100007104, symSize: 0x20 }
  - { offsetInCU: 0x2610C, offset: 0x2610C, size: 0x8, addend: 0x0, symName: __ZNK4trieIcE13node_iteratoreqERKS1_, symObjAddr: 0x4C98, symBinAddr: 0x100007124, symSize: 0x30 }
  - { offsetInCU: 0x26142, offset: 0x26142, size: 0x8, addend: 0x0, symName: __Z24test_const_node_iteratorv, symObjAddr: 0x4CC8, symBinAddr: 0x100007154, symSize: 0x450 }
  - { offsetInCU: 0x261B3, offset: 0x261B3, size: 0x8, addend: 0x0, symName: __ZNK4trieIcE4rootEv, symObjAddr: 0x5118, symBinAddr: 0x1000075A4, symSize: 0x60 }
  - { offsetInCU: 0x261FA, offset: 0x261FA, size: 0x8, addend: 0x0, symName: __ZN4trieIcE19const_node_iteratorC1EPKS0_, symObjAddr: 0x5178, symBinAddr: 0x100007604, symSize: 0x34 }
  - { offsetInCU: 0x26235, offset: 0x26235, size: 0x8, addend: 0x0, symName: __ZNK4trieIcE9get_labelEv, symObjAddr: 0x51AC, symBinAddr: 0x100007638, symSize: 0x18 }
  - { offsetInCU: 0x2625D, offset: 0x2625D, size: 0x8, addend: 0x0, symName: __ZN4trieIcE19const_node_iteratorppEi, symObjAddr: 0x51C4, symBinAddr: 0x100007650, symSize: 0x30 }
  - { offsetInCU: 0x2629F, offset: 0x2629F, size: 0x8, addend: 0x0, symName: __ZNK4trieIcE19const_node_iteratordeEv, symObjAddr: 0x51F4, symBinAddr: 0x100007680, symSize: 0x1C }
  - { offsetInCU: 0x262C8, offset: 0x262C8, size: 0x8, addend: 0x0, symName: __ZN4trieIcE19const_node_iteratorppEv, symObjAddr: 0x5210, symBinAddr: 0x10000769C, symSize: 0x20 }
  - { offsetInCU: 0x262F1, offset: 0x262F1, size: 0x8, addend: 0x0, symName: __ZNK4trieIcE19const_node_iteratoreqERKS1_, symObjAddr: 0x5230, symBinAddr: 0x1000076BC, symSize: 0x30 }
  - { offsetInCU: 0x26327, offset: 0x26327, size: 0x8, addend: 0x0, symName: __Z17test_bag_iteratorv, symObjAddr: 0x5260, symBinAddr: 0x1000076EC, symSize: 0x930 }
  - { offsetInCU: 0x26398, offset: 0x26398, size: 0x8, addend: 0x0, symName: __ZN3bagI4trieIcEE5beginEv, symObjAddr: 0x5B90, symBinAddr: 0x10000801C, symSize: 0xEC }
  - { offsetInCU: 0x263BE, offset: 0x263BE, size: 0x8, addend: 0x0, symName: __ZNK3bagI4trieIcEE17children_iteratorptEv, symObjAddr: 0x5C7C, symBinAddr: 0x100008108, symSize: 0x18 }
  - { offsetInCU: 0x263E4, offset: 0x263E4, size: 0x8, addend: 0x0, symName: __ZNK3bagI4trieIcEE17children_iteratordeEv, symObjAddr: 0x5C94, symBinAddr: 0x100008120, symSize: 0x18 }
  - { offsetInCU: 0x2640A, offset: 0x2640A, size: 0x8, addend: 0x0, symName: __ZN3bagI4trieIcEE17children_iteratorppEi, symObjAddr: 0x5CAC, symBinAddr: 0x100008138, symSize: 0x158 }
  - { offsetInCU: 0x26465, offset: 0x26465, size: 0x8, addend: 0x0, symName: __ZN3bagI4trieIcEE17children_iteratorD1Ev, symObjAddr: 0x5E04, symBinAddr: 0x100008290, symSize: 0x2C }
  - { offsetInCU: 0x26491, offset: 0x26491, size: 0x8, addend: 0x0, symName: __ZNK3bagI4trieIcEE17children_iteratoreqERKS3_, symObjAddr: 0x5E30, symBinAddr: 0x1000082BC, symSize: 0x64 }
  - { offsetInCU: 0x264C5, offset: 0x264C5, size: 0x8, addend: 0x0, symName: __ZN3bagI4trieIcEE3endEv, symObjAddr: 0x5E94, symBinAddr: 0x100008320, symSize: 0xA8 }
  - { offsetInCU: 0x26501, offset: 0x26501, size: 0x8, addend: 0x0, symName: __ZN3bagI4trieIcEE17children_iteratoraSEOS3_, symObjAddr: 0x5F3C, symBinAddr: 0x1000083C8, symSize: 0x48 }
  - { offsetInCU: 0x26532, offset: 0x26532, size: 0x8, addend: 0x0, symName: __ZN3bagI4trieIcEE17children_iteratorppEv, symObjAddr: 0x5F84, symBinAddr: 0x100008410, symSize: 0x104 }
  - { offsetInCU: 0x26573, offset: 0x26573, size: 0x8, addend: 0x0, symName: __Z23test_const_bag_iteratorv, symObjAddr: 0x6088, symBinAddr: 0x100008514, symSize: 0x818 }
  - { offsetInCU: 0x265D4, offset: 0x265D4, size: 0x8, addend: 0x0, symName: __ZNK3bagI4trieIcEE5beginEv, symObjAddr: 0x68A0, symBinAddr: 0x100008D2C, symSize: 0xEC }
  - { offsetInCU: 0x265FA, offset: 0x265FA, size: 0x8, addend: 0x0, symName: __ZNK3bagI4trieIcEE23const_children_iteratorptEv, symObjAddr: 0x698C, symBinAddr: 0x100008E18, symSize: 0x18 }
  - { offsetInCU: 0x26620, offset: 0x26620, size: 0x8, addend: 0x0, symName: __ZNK3bagI4trieIcEE23const_children_iteratordeEv, symObjAddr: 0x69A4, symBinAddr: 0x100008E30, symSize: 0x18 }
  - { offsetInCU: 0x26646, offset: 0x26646, size: 0x8, addend: 0x0, symName: __ZN3bagI4trieIcEE23const_children_iteratorppEi, symObjAddr: 0x69BC, symBinAddr: 0x100008E48, symSize: 0x158 }
  - { offsetInCU: 0x266A1, offset: 0x266A1, size: 0x8, addend: 0x0, symName: __ZN3bagI4trieIcEE23const_children_iteratorD1Ev, symObjAddr: 0x6B14, symBinAddr: 0x100008FA0, symSize: 0x2C }
  - { offsetInCU: 0x266CD, offset: 0x266CD, size: 0x8, addend: 0x0, symName: __ZNK3bagI4trieIcEE23const_children_iteratoreqERKS3_, symObjAddr: 0x6B40, symBinAddr: 0x100008FCC, symSize: 0x64 }
  - { offsetInCU: 0x26702, offset: 0x26702, size: 0x8, addend: 0x0, symName: __ZNK3bagI4trieIcEE3endEv, symObjAddr: 0x6BA4, symBinAddr: 0x100009030, symSize: 0xA8 }
  - { offsetInCU: 0x2673E, offset: 0x2673E, size: 0x8, addend: 0x0, symName: __ZN3bagI4trieIcEE23const_children_iteratoraSEOS3_, symObjAddr: 0x6C4C, symBinAddr: 0x1000090D8, symSize: 0x48 }
  - { offsetInCU: 0x2676F, offset: 0x2676F, size: 0x8, addend: 0x0, symName: __ZN3bagI4trieIcEE23const_children_iteratorppEv, symObjAddr: 0x6C94, symBinAddr: 0x100009120, symSize: 0x104 }
  - { offsetInCU: 0x267B0, offset: 0x267B0, size: 0x8, addend: 0x0, symName: __Z17test_max_functionv, symObjAddr: 0x6D98, symBinAddr: 0x100009224, symSize: 0x2E0 }
  - { offsetInCU: 0x26801, offset: 0x26801, size: 0x8, addend: 0x0, symName: __ZN4trieIcE3maxEv, symObjAddr: 0x7078, symBinAddr: 0x100009504, symSize: 0xC0 }
  - { offsetInCU: 0x26856, offset: 0x26856, size: 0x8, addend: 0x0, symName: __ZN4trieIcEC1ERKS0_, symObjAddr: 0x7138, symBinAddr: 0x1000095C4, symSize: 0x34 }
  - { offsetInCU: 0x2688F, offset: 0x2688F, size: 0x8, addend: 0x0, symName: __Z12test_ostreamv, symObjAddr: 0x716C, symBinAddr: 0x1000095F8, symSize: 0x144 }
  - { offsetInCU: 0x268CE, offset: 0x268CE, size: 0x8, addend: 0x0, symName: __Z21test_path_compressionv, symObjAddr: 0x72B0, symBinAddr: 0x10000973C, symSize: 0x870 }
  - { offsetInCU: 0x2693D, offset: 0x2693D, size: 0x8, addend: 0x0, symName: __Z9load_trieINSt3__112basic_stringIcNS0_11char_traitsIcEENS0_9allocatorIcEEEEE4trieIT_ES6_, symObjAddr: 0x7B20, symBinAddr: 0x100009FAC, symSize: 0x2A4 }
  - { offsetInCU: 0x269A3, offset: 0x269A3, size: 0x8, addend: 0x0, symName: __ZN4trieINSt3__112basic_stringIcNS0_11char_traitsIcEENS0_9allocatorIcEEEEE13path_compressEv, symObjAddr: 0x7DC4, symBinAddr: 0x10000A250, symSize: 0x278 }
  - { offsetInCU: 0x26A1F, offset: 0x26A1F, size: 0x8, addend: 0x0, symName: __ZNK4trieINSt3__112basic_stringIcNS0_11char_traitsIcEENS0_9allocatorIcEEEEEeqERKS7_, symObjAddr: 0x803C, symBinAddr: 0x10000A4C8, symSize: 0xAC }
  - { offsetInCU: 0x26A54, offset: 0x26A54, size: 0x8, addend: 0x0, symName: __Z9load_trieIiE4trieIT_ENSt3__112basic_stringIcNS3_11char_traitsIcEENS3_9allocatorIcEEEE, symObjAddr: 0x80E8, symBinAddr: 0x10000A574, symSize: 0x2A4 }
  - { offsetInCU: 0x26ABA, offset: 0x26ABA, size: 0x8, addend: 0x0, symName: __ZN4trieIiE13path_compressEv, symObjAddr: 0x838C, symBinAddr: 0x10000A818, symSize: 0x254 }
  - { offsetInCU: 0x26B36, offset: 0x26B36, size: 0x8, addend: 0x0, symName: __ZNK4trieIiEeqERKS0_, symObjAddr: 0x85E0, symBinAddr: 0x10000AA6C, symSize: 0xAC }
  - { offsetInCU: 0x26B6C, offset: 0x26B6C, size: 0x8, addend: 0x0, symName: __ZN4trieIiEaSEOS0_, symObjAddr: 0x868C, symBinAddr: 0x10000AB18, symSize: 0x54 }
  - { offsetInCU: 0x26BA2, offset: 0x26BA2, size: 0x8, addend: 0x0, symName: __ZN4trieIiED1Ev, symObjAddr: 0x86E0, symBinAddr: 0x10000AB6C, symSize: 0x2C }
  - { offsetInCU: 0x26BCE, offset: 0x26BCE, size: 0x8, addend: 0x0, symName: __ZN4trieINSt3__112basic_stringIcNS0_11char_traitsIcEENS0_9allocatorIcEEEEED1Ev, symObjAddr: 0x870C, symBinAddr: 0x10000AB98, symSize: 0x2C }
  - { offsetInCU: 0x26BF9, offset: 0x26BF9, size: 0x8, addend: 0x0, symName: __Z13test_trie_sumv, symObjAddr: 0x8738, symBinAddr: 0x10000ABC4, symSize: 0x1118 }
  - { offsetInCU: 0x26C5A, offset: 0x26C5A, size: 0x8, addend: 0x0, symName: __ZN4trieIcEaSEOS0_, symObjAddr: 0x9850, symBinAddr: 0x10000BCDC, symSize: 0x54 }
  - { offsetInCU: 0x26C8F, offset: 0x26C8F, size: 0x8, addend: 0x0, symName: __ZlsIcERNSt3__113basic_ostreamIcNS0_11char_traitsIcEEEES5_RK4trieIT_E, symObjAddr: 0x98A4, symBinAddr: 0x10000BD30, symSize: 0x30 }
  - { offsetInCU: 0x26CD6, offset: 0x26CD6, size: 0x8, addend: 0x0, symName: __ZNK4trieIcEplERKS0_, symObjAddr: 0x98D4, symBinAddr: 0x10000BD60, symSize: 0xD8 }
  - { offsetInCU: 0x26D2C, offset: 0x26D2C, size: 0x8, addend: 0x0, symName: _main, symObjAddr: 0x99AC, symBinAddr: 0x10000BE38, symSize: 0x58 }
  - { offsetInCU: 0x26D47, offset: 0x26D47, size: 0x8, addend: 0x0, symName: __ZN16parser_exceptionC2ERKNSt3__112basic_stringIcNS0_11char_traitsIcEENS0_9allocatorIcEEEE, symObjAddr: 0x9A04, symBinAddr: 0x10000BE90, symSize: 0x34 }
  - { offsetInCU: 0x26D7F, offset: 0x26D7F, size: 0x8, addend: 0x0, symName: __ZN16parser_exceptionD2Ev, symObjAddr: 0x9A38, symBinAddr: 0x10000BEC4, symSize: 0x2C }
  - { offsetInCU: 0x26DAB, offset: 0x26DAB, size: 0x8, addend: 0x0, symName: __ZNSt3__14__fs10filesystem18directory_iteratorC1B8ue170006EOS2_, symObjAddr: 0x9A64, symBinAddr: 0x10000BEF0, symSize: 0x34 }
  - { offsetInCU: 0x26DDF, offset: 0x26DDF, size: 0x8, addend: 0x0, symName: __ZNSt3__14__fs10filesystem18directory_iteratorC2B8ue170006EOS2_, symObjAddr: 0x9A98, symBinAddr: 0x10000BF24, symSize: 0x34 }
  - { offsetInCU: 0x26E13, offset: 0x26E13, size: 0x8, addend: 0x0, symName: __ZNSt3__110shared_ptrINS_4__fs10filesystem12__dir_streamEEC1B8ue170006EOS4_, symObjAddr: 0x9ACC, symBinAddr: 0x10000BF58, symSize: 0x34 }
  - { offsetInCU: 0x26E4C, offset: 0x26E4C, size: 0x8, addend: 0x0, symName: __ZNSt3__110shared_ptrINS_4__fs10filesystem12__dir_streamEEC2B8ue170006EOS4_, symObjAddr: 0x9B00, symBinAddr: 0x10000BF8C, symSize: 0x40 }
  - { offsetInCU: 0x26E85, offset: 0x26E85, size: 0x8, addend: 0x0, symName: __ZNSt3__14__fs10filesystem18directory_iteratorC2B8ue170006ERKS2_, symObjAddr: 0x9B40, symBinAddr: 0x10000BFCC, symSize: 0x34 }
  - { offsetInCU: 0x26EB9, offset: 0x26EB9, size: 0x8, addend: 0x0, symName: __ZNSt3__110shared_ptrINS_4__fs10filesystem12__dir_streamEEC1B8ue170006ERKS4_, symObjAddr: 0x9B74, symBinAddr: 0x10000C000, symSize: 0x34 }
  - { offsetInCU: 0x26EF2, offset: 0x26EF2, size: 0x8, addend: 0x0, symName: __ZNSt3__110shared_ptrINS_4__fs10filesystem12__dir_streamEEC2B8ue170006ERKS4_, symObjAddr: 0x9BA8, symBinAddr: 0x10000C034, symSize: 0x70 }
  - { offsetInCU: 0x26F2B, offset: 0x26F2B, size: 0x8, addend: 0x0, symName: __ZNSt3__119__shared_weak_count12__add_sharedB8ue170006Ev, symObjAddr: 0x9C18, symBinAddr: 0x10000C0A4, symSize: 0x24 }
  - { offsetInCU: 0x26F51, offset: 0x26F51, size: 0x8, addend: 0x0, symName: __ZNSt3__114__shared_count12__add_sharedB8ue170006Ev, symObjAddr: 0x9C3C, symBinAddr: 0x10000C0C8, symSize: 0x28 }
  - { offsetInCU: 0x26F77, offset: 0x26F77, size: 0x8, addend: 0x0, symName: __ZNSt3__14__fs10filesystem18directory_iteratorD2B8ue170006Ev, symObjAddr: 0x9C94, symBinAddr: 0x10000C120, symSize: 0x2C }
  - { offsetInCU: 0x26FA1, offset: 0x26FA1, size: 0x8, addend: 0x0, symName: __ZNSt3__110shared_ptrINS_4__fs10filesystem12__dir_streamEED1B8ue170006Ev, symObjAddr: 0x9CC0, symBinAddr: 0x10000C14C, symSize: 0x2C }
  - { offsetInCU: 0x26FCB, offset: 0x26FCB, size: 0x8, addend: 0x0, symName: __ZNSt3__110shared_ptrINS_4__fs10filesystem12__dir_streamEED2B8ue170006Ev, symObjAddr: 0x9CEC, symBinAddr: 0x10000C178, symSize: 0x54 }
  - { offsetInCU: 0x26FF5, offset: 0x26FF5, size: 0x8, addend: 0x0, symName: __ZNSt3__119__shared_weak_count16__release_sharedB8ue170006Ev, symObjAddr: 0x9D40, symBinAddr: 0x10000C1CC, symSize: 0x3C }
  - { offsetInCU: 0x2701B, offset: 0x2701B, size: 0x8, addend: 0x0, symName: __ZNSt3__114__shared_count16__release_sharedB8ue170006Ev, symObjAddr: 0x9D7C, symBinAddr: 0x10000C208, symSize: 0x7C }
  - { offsetInCU: 0x27041, offset: 0x27041, size: 0x8, addend: 0x0, symName: __ZNSt3__14__fs10filesystem18directory_iteratorC1B8ue170006Ev, symObjAddr: 0x9E28, symBinAddr: 0x10000C2B4, symSize: 0x2C }
  - { offsetInCU: 0x2706B, offset: 0x2706B, size: 0x8, addend: 0x0, symName: __ZNSt3__14__fs10filesystem18directory_iteratorC2B8ue170006Ev, symObjAddr: 0x9E54, symBinAddr: 0x10000C2E0, symSize: 0x2C }
  - { offsetInCU: 0x27095, offset: 0x27095, size: 0x8, addend: 0x0, symName: __ZNSt3__110shared_ptrINS_4__fs10filesystem12__dir_streamEEC1B8ue170006Ev, symObjAddr: 0x9E80, symBinAddr: 0x10000C30C, symSize: 0x2C }
  - { offsetInCU: 0x270BF, offset: 0x270BF, size: 0x8, addend: 0x0, symName: __ZNSt3__110shared_ptrINS_4__fs10filesystem12__dir_streamEEC2B8ue170006Ev, symObjAddr: 0x9EAC, symBinAddr: 0x10000C338, symSize: 0x1C }
  - { offsetInCU: 0x270E9, offset: 0x270E9, size: 0x8, addend: 0x0, symName: __ZNKSt3__110shared_ptrINS_4__fs10filesystem12__dir_streamEE3getB8ue170006Ev, symObjAddr: 0x9F40, symBinAddr: 0x10000C3CC, symSize: 0x18 }
  - { offsetInCU: 0x2710F, offset: 0x2710F, size: 0x8, addend: 0x0, symName: __ZNKSt3__14__fs10filesystem15directory_entry8__get_ftB8ue170006EPNS_10error_codeE, symObjAddr: 0x9F58, symBinAddr: 0x10000C3E4, symSize: 0x1B8 }
  - { offsetInCU: 0x27161, offset: 0x27161, size: 0x8, addend: 0x0, symName: __ZNKSt3__14__fs10filesystem11file_status4typeB8ue170006Ev, symObjAddr: 0xA110, symBinAddr: 0x10000C59C, symSize: 0x18 }
  - { offsetInCU: 0x27187, offset: 0x27187, size: 0x8, addend: 0x0, symName: __ZNSt3__14__fs10filesystem11file_statusD1B8ue170006Ev, symObjAddr: 0xA128, symBinAddr: 0x10000C5B4, symSize: 0x2C }
  - { offsetInCU: 0x271B1, offset: 0x271B1, size: 0x8, addend: 0x0, symName: __ZNSt3__14__fs10filesystem11file_statusC1B8ue170006ENS1_9file_typeENS1_5permsE, symObjAddr: 0xA154, symBinAddr: 0x10000C5E0, symSize: 0x3C }
  - { offsetInCU: 0x271F7, offset: 0x271F7, size: 0x8, addend: 0x0, symName: __ZNSt3__110error_code5clearB8ue170006Ev, symObjAddr: 0xA248, symBinAddr: 0x10000C6D4, symSize: 0x34 }
  - { offsetInCU: 0x2721D, offset: 0x2721D, size: 0x8, addend: 0x0, symName: __ZNSt3__14__fs10filesystem11file_statusD2B8ue170006Ev, symObjAddr: 0xA280, symBinAddr: 0x10000C70C, symSize: 0x14 }
  - { offsetInCU: 0x27247, offset: 0x27247, size: 0x8, addend: 0x0, symName: __ZNSt3__14__fs10filesystem11file_statusC2B8ue170006ENS1_9file_typeENS1_5permsE, symObjAddr: 0xA294, symBinAddr: 0x10000C720, symSize: 0x2C }
  - { offsetInCU: 0x2728D, offset: 0x2728D, size: 0x8, addend: 0x0, symName: __ZNSt3__110error_codeC1B8ue170006EiRKNS_14error_categoryE, symObjAddr: 0xA2F0, symBinAddr: 0x10000C77C, symSize: 0x3C }
  - { offsetInCU: 0x272D3, offset: 0x272D3, size: 0x8, addend: 0x0, symName: __ZNSt3__110error_codeC2B8ue170006EiRKNS_14error_categoryE, symObjAddr: 0xA32C, symBinAddr: 0x10000C7B8, symSize: 0x2C }
  - { offsetInCU: 0x27319, offset: 0x27319, size: 0x8, addend: 0x0, symName: __ZNSt3__112basic_stringIcNS_11char_traitsIcEENS_9allocatorIcEEEC1INS_17basic_string_viewIcS2_EELi0EEERKT_, symObjAddr: 0xA358, symBinAddr: 0x10000C7E4, symSize: 0x34 }
  - { offsetInCU: 0x27361, offset: 0x27361, size: 0x8, addend: 0x0, symName: __ZNSt3__112basic_stringIcNS_11char_traitsIcEENS_9allocatorIcEEEC2INS_17basic_string_viewIcS2_EELi0EEERKT_, symObjAddr: 0xA38C, symBinAddr: 0x10000C818, symSize: 0x70 }
  - { offsetInCU: 0x273CC, offset: 0x273CC, size: 0x8, addend: 0x0, symName: __ZNSt3__117__compressed_pairINS_12basic_stringIcNS_11char_traitsIcEENS_9allocatorIcEEE5__repES5_EC1B8ue170006INS_18__default_init_tagESA_EEOT_OT0_, symObjAddr: 0xA3FC, symBinAddr: 0x10000C888, symSize: 0x3C }
  - { offsetInCU: 0x27424, offset: 0x27424, size: 0x8, addend: 0x0, symName: __ZNKSt3__117basic_string_viewIcNS_11char_traitsIcEEE4dataB8ue170006Ev, symObjAddr: 0xA438, symBinAddr: 0x10000C8C4, symSize: 0x18 }
  - { offsetInCU: 0x2744A, offset: 0x2744A, size: 0x8, addend: 0x0, symName: __ZNKSt3__117basic_string_viewIcNS_11char_traitsIcEEE4sizeB8ue170006Ev, symObjAddr: 0xA450, symBinAddr: 0x10000C8DC, symSize: 0x18 }
  - { offsetInCU: 0x27470, offset: 0x27470, size: 0x8, addend: 0x0, symName: __ZNSt3__117__compressed_pairINS_12basic_stringIcNS_11char_traitsIcEENS_9allocatorIcEEE5__repES5_EC2B8ue170006INS_18__default_init_tagESA_EEOT_OT0_, symObjAddr: 0xA468, symBinAddr: 0x10000C8F4, symSize: 0x3C }
  - { offsetInCU: 0x274C8, offset: 0x274C8, size: 0x8, addend: 0x0, symName: __ZNSt3__122__compressed_pair_elemINS_12basic_stringIcNS_11char_traitsIcEENS_9allocatorIcEEE5__repELi0ELb0EEC2B8ue170006ENS_18__default_init_tagE, symObjAddr: 0xA4A4, symBinAddr: 0x10000C930, symSize: 0x14 }
  - { offsetInCU: 0x274FC, offset: 0x274FC, size: 0x8, addend: 0x0, symName: __ZNSt3__122__compressed_pair_elemINS_9allocatorIcEELi1ELb1EEC2B8ue170006ENS_18__default_init_tagE, symObjAddr: 0xA4B8, symBinAddr: 0x10000C944, symSize: 0x2C }
  - { offsetInCU: 0x27530, offset: 0x27530, size: 0x8, addend: 0x0, symName: __ZNSt3__19allocatorIcEC2B8ue170006Ev, symObjAddr: 0xA4E4, symBinAddr: 0x10000C970, symSize: 0x2C }
  - { offsetInCU: 0x2755A, offset: 0x2755A, size: 0x8, addend: 0x0, symName: __ZNSt3__116__non_trivial_ifILb1ENS_9allocatorIcEEEC2B8ue170006Ev, symObjAddr: 0xA510, symBinAddr: 0x10000C99C, symSize: 0x14 }
  - { offsetInCU: 0x27584, offset: 0x27584, size: 0x8, addend: 0x0, symName: __ZNSt3__14__fs10filesystem4pathD2B8ue170006Ev, symObjAddr: 0xA524, symBinAddr: 0x10000C9B0, symSize: 0x2C }
  - { offsetInCU: 0x275AE, offset: 0x275AE, size: 0x8, addend: 0x0, symName: __ZNSt3__14__fs10filesystem4pathC2B8ue170006EONS_12basic_stringIcNS_11char_traitsIcEENS_9allocatorIcEEEENS2_6formatE, symObjAddr: 0xA550, symBinAddr: 0x10000C9DC, symSize: 0x38 }
  - { offsetInCU: 0x275F2, offset: 0x275F2, size: 0x8, addend: 0x0, symName: __ZNSt3__112basic_stringIcNS_11char_traitsIcEENS_9allocatorIcEEEC1B8ue170006EOS5_, symObjAddr: 0xA588, symBinAddr: 0x10000CA14, symSize: 0x34 }
  - { offsetInCU: 0x2762B, offset: 0x2762B, size: 0x8, addend: 0x0, symName: __ZNSt3__112basic_stringIcNS_11char_traitsIcEENS_9allocatorIcEEEC2B8ue170006EOS5_, symObjAddr: 0xA5BC, symBinAddr: 0x10000CA48, symSize: 0x50 }
  - { offsetInCU: 0x27664, offset: 0x27664, size: 0x8, addend: 0x0, symName: __ZNSt3__112basic_stringIcNS_11char_traitsIcEENS_9allocatorIcEEE14__default_initB8ue170006Ev, symObjAddr: 0xA60C, symBinAddr: 0x10000CA98, symSize: 0x40 }
  - { offsetInCU: 0x2768A, offset: 0x2768A, size: 0x8, addend: 0x0, symName: __ZNSt3__117__compressed_pairINS_12basic_stringIcNS_11char_traitsIcEENS_9allocatorIcEEE5__repES5_E5firstB8ue170006Ev, symObjAddr: 0xA64C, symBinAddr: 0x10000CAD8, symSize: 0x24 }
  - { offsetInCU: 0x276B0, offset: 0x276B0, size: 0x8, addend: 0x0, symName: __ZNSt3__122__compressed_pair_elemINS_12basic_stringIcNS_11char_traitsIcEENS_9allocatorIcEEE5__repELi0ELb0EE5__getB8ue170006Ev, symObjAddr: 0xA670, symBinAddr: 0x10000CAFC, symSize: 0x14 }
  - { offsetInCU: 0x276D6, offset: 0x276D6, size: 0x8, addend: 0x0, symName: __ZN3bagI4trieIcEE17children_iteratorD2Ev, symObjAddr: 0xA684, symBinAddr: 0x10000CB10, symSize: 0x30 }
  - { offsetInCU: 0x27702, offset: 0x27702, size: 0x8, addend: 0x0, symName: __ZNSt3__16vectorIP4trieIcENS_9allocatorIS3_EEED1B8ue170006Ev, symObjAddr: 0xA6B4, symBinAddr: 0x10000CB40, symSize: 0x2C }
  - { offsetInCU: 0x2772C, offset: 0x2772C, size: 0x8, addend: 0x0, symName: __ZNSt3__16vectorIP4trieIcENS_9allocatorIS3_EEED2B8ue170006Ev, symObjAddr: 0xA6E0, symBinAddr: 0x10000CB6C, symSize: 0x44 }
  - { offsetInCU: 0x27756, offset: 0x27756, size: 0x8, addend: 0x0, symName: __ZNSt3__16vectorIP4trieIcENS_9allocatorIS3_EEE16__destroy_vectorC1B8ue170006ERS6_, symObjAddr: 0xA724, symBinAddr: 0x10000CBB0, symSize: 0x34 }
  - { offsetInCU: 0x2778F, offset: 0x2778F, size: 0x8, addend: 0x0, symName: __ZNSt3__16vectorIP4trieIcENS_9allocatorIS3_EEE16__destroy_vectorclB8ue170006Ev, symObjAddr: 0xA758, symBinAddr: 0x10000CBE4, symSize: 0x90 }
  - { offsetInCU: 0x277B5, offset: 0x277B5, size: 0x8, addend: 0x0, symName: __ZNSt3__16vectorIP4trieIcENS_9allocatorIS3_EEE16__destroy_vectorC2B8ue170006ERS6_, symObjAddr: 0xA7E8, symBinAddr: 0x10000CC74, symSize: 0x20 }
  - { offsetInCU: 0x277EE, offset: 0x277EE, size: 0x8, addend: 0x0, symName: __ZNSt3__16vectorIP4trieIcENS_9allocatorIS3_EEE7__clearB8ue170006Ev, symObjAddr: 0xA808, symBinAddr: 0x10000CC94, symSize: 0x28 }
  - { offsetInCU: 0x27814, offset: 0x27814, size: 0x8, addend: 0x0, symName: __ZNKSt3__16vectorIP4trieIcENS_9allocatorIS3_EEE17__annotate_deleteB8ue170006Ev, symObjAddr: 0xA830, symBinAddr: 0x10000CCBC, symSize: 0xB8 }
  - { offsetInCU: 0x2783A, offset: 0x2783A, size: 0x8, addend: 0x0, symName: __ZNSt3__116allocator_traitsINS_9allocatorIP4trieIcEEEE10deallocateB8ue170006ERS5_PS4_m, symObjAddr: 0xA8E8, symBinAddr: 0x10000CD74, symSize: 0x34 }
  - { offsetInCU: 0x2787C, offset: 0x2787C, size: 0x8, addend: 0x0, symName: __ZNSt3__16vectorIP4trieIcENS_9allocatorIS3_EEE7__allocB8ue170006Ev, symObjAddr: 0xA91C, symBinAddr: 0x10000CDA8, symSize: 0x28 }
  - { offsetInCU: 0x278A2, offset: 0x278A2, size: 0x8, addend: 0x0, symName: __ZNKSt3__16vectorIP4trieIcENS_9allocatorIS3_EEE8capacityB8ue170006Ev, symObjAddr: 0xA944, symBinAddr: 0x10000CDD0, symSize: 0x40 }
  - { offsetInCU: 0x278C8, offset: 0x278C8, size: 0x8, addend: 0x0, symName: __ZNSt3__16vectorIP4trieIcENS_9allocatorIS3_EEE22__base_destruct_at_endB8ue170006EPS3_, symObjAddr: 0xA984, symBinAddr: 0x10000CE10, symSize: 0x8C }
  - { offsetInCU: 0x2790C, offset: 0x2790C, size: 0x8, addend: 0x0, symName: __ZNSt3__116allocator_traitsINS_9allocatorIP4trieIcEEEE7destroyB8ue170006IS4_vEEvRS5_PT_, symObjAddr: 0xAA10, symBinAddr: 0x10000CE9C, symSize: 0x2C }
  - { offsetInCU: 0x27949, offset: 0x27949, size: 0x8, addend: 0x0, symName: __ZNSt3__19allocatorIP4trieIcEE7destroyB8ue170006EPS3_, symObjAddr: 0xAA50, symBinAddr: 0x10000CEDC, symSize: 0x14 }
  - { offsetInCU: 0x2797D, offset: 0x2797D, size: 0x8, addend: 0x0, symName: __ZNKSt3__16vectorIP4trieIcENS_9allocatorIS3_EEE31__annotate_contiguous_containerB8ue170006EPKvS8_S8_S8_, symObjAddr: 0xAA64, symBinAddr: 0x10000CEF0, symSize: 0x20 }
  - { offsetInCU: 0x279CF, offset: 0x279CF, size: 0x8, addend: 0x0, symName: __ZNKSt3__16vectorIP4trieIcENS_9allocatorIS3_EEE4dataB8ue170006Ev, symObjAddr: 0xAA84, symBinAddr: 0x10000CF10, symSize: 0x28 }
  - { offsetInCU: 0x279F5, offset: 0x279F5, size: 0x8, addend: 0x0, symName: __ZNKSt3__16vectorIP4trieIcENS_9allocatorIS3_EEE4sizeB8ue170006Ev, symObjAddr: 0xAAAC, symBinAddr: 0x10000CF38, symSize: 0x28 }
  - { offsetInCU: 0x27A1B, offset: 0x27A1B, size: 0x8, addend: 0x0, symName: __ZNSt3__19allocatorIP4trieIcEE10deallocateB8ue170006EPS3_m, symObjAddr: 0xAAD4, symBinAddr: 0x10000CF60, symSize: 0x40 }
  - { offsetInCU: 0x27A5D, offset: 0x27A5D, size: 0x8, addend: 0x0, symName: __ZNSt3__117__compressed_pairIPP4trieIcENS_9allocatorIS3_EEE6secondB8ue170006Ev, symObjAddr: 0xAC3C, symBinAddr: 0x10000D0C8, symSize: 0x24 }
  - { offsetInCU: 0x27A83, offset: 0x27A83, size: 0x8, addend: 0x0, symName: __ZNSt3__122__compressed_pair_elemINS_9allocatorIP4trieIcEEELi1ELb1EE5__getB8ue170006Ev, symObjAddr: 0xAC60, symBinAddr: 0x10000D0EC, symSize: 0x14 }
  - { offsetInCU: 0x27AA9, offset: 0x27AA9, size: 0x8, addend: 0x0, symName: __ZNKSt3__16vectorIP4trieIcENS_9allocatorIS3_EEE9__end_capB8ue170006Ev, symObjAddr: 0xAC74, symBinAddr: 0x10000D100, symSize: 0x28 }
  - { offsetInCU: 0x27ACF, offset: 0x27ACF, size: 0x8, addend: 0x0, symName: __ZNKSt3__117__compressed_pairIPP4trieIcENS_9allocatorIS3_EEE5firstB8ue170006Ev, symObjAddr: 0xAC9C, symBinAddr: 0x10000D128, symSize: 0x24 }
  - { offsetInCU: 0x27AF5, offset: 0x27AF5, size: 0x8, addend: 0x0, symName: __ZNKSt3__122__compressed_pair_elemIPP4trieIcELi0ELb0EE5__getB8ue170006Ev, symObjAddr: 0xACC0, symBinAddr: 0x10000D14C, symSize: 0x14 }
  - { offsetInCU: 0x27B1B, offset: 0x27B1B, size: 0x8, addend: 0x0, symName: __ZNSt3__16vectorIP4trieIcENS_9allocatorIS3_EEEaSB8ue170006EOS6_, symObjAddr: 0xACD4, symBinAddr: 0x10000D160, symSize: 0x34 }
  - { offsetInCU: 0x27B52, offset: 0x27B52, size: 0x8, addend: 0x0, symName: __ZNSt3__16vectorIP4trieIcENS_9allocatorIS3_EEE13__move_assignERS6_NS_17integral_constantIbLb1EEE, symObjAddr: 0xAD08, symBinAddr: 0x10000D194, symSize: 0x94 }
  - { offsetInCU: 0x27B94, offset: 0x27B94, size: 0x8, addend: 0x0, symName: __ZNSt3__16vectorIP4trieIcENS_9allocatorIS3_EEE13__vdeallocateEv, symObjAddr: 0xAD9C, symBinAddr: 0x10000D228, symSize: 0x94 }
  - { offsetInCU: 0x27BBC, offset: 0x27BBC, size: 0x8, addend: 0x0, symName: __ZNSt3__16vectorIP4trieIcENS_9allocatorIS3_EEE19__move_assign_allocB8ue170006ERS6_, symObjAddr: 0xAE30, symBinAddr: 0x10000D2BC, symSize: 0x2C }
  - { offsetInCU: 0x27BF1, offset: 0x27BF1, size: 0x8, addend: 0x0, symName: __ZNSt3__16vectorIP4trieIcENS_9allocatorIS3_EEE9__end_capB8ue170006Ev, symObjAddr: 0xAE5C, symBinAddr: 0x10000D2E8, symSize: 0x28 }
  - { offsetInCU: 0x27C17, offset: 0x27C17, size: 0x8, addend: 0x0, symName: __ZNSt3__16vectorIP4trieIcENS_9allocatorIS3_EEE5clearB8ue170006Ev, symObjAddr: 0xAE84, symBinAddr: 0x10000D310, symSize: 0x44 }
  - { offsetInCU: 0x27C4C, offset: 0x27C4C, size: 0x8, addend: 0x0, symName: __ZNKSt3__16vectorIP4trieIcENS_9allocatorIS3_EEE17__annotate_shrinkB8ue170006Em, symObjAddr: 0xAEC8, symBinAddr: 0x10000D354, symSize: 0xB4 }
  - { offsetInCU: 0x27C81, offset: 0x27C81, size: 0x8, addend: 0x0, symName: __ZNSt3__16vectorIP4trieIcENS_9allocatorIS3_EEE19__move_assign_allocB8ue170006ERS6_NS_17integral_constantIbLb1EEE, symObjAddr: 0xAF7C, symBinAddr: 0x10000D408, symSize: 0x38 }
  - { offsetInCU: 0x27CC1, offset: 0x27CC1, size: 0x8, addend: 0x0, symName: __ZNSt3__117__compressed_pairIPP4trieIcENS_9allocatorIS3_EEE5firstB8ue170006Ev, symObjAddr: 0xAFB4, symBinAddr: 0x10000D440, symSize: 0x24 }
  - { offsetInCU: 0x27CE7, offset: 0x27CE7, size: 0x8, addend: 0x0, symName: __ZNSt3__122__compressed_pair_elemIPP4trieIcELi0ELb0EE5__getB8ue170006Ev, symObjAddr: 0xAFD8, symBinAddr: 0x10000D464, symSize: 0x14 }
  - { offsetInCU: 0x27D0D, offset: 0x27D0D, size: 0x8, addend: 0x0, symName: __ZN3bagI4trieIcEE23const_children_iteratorD2Ev, symObjAddr: 0xAFEC, symBinAddr: 0x10000D478, symSize: 0x30 }
  - { offsetInCU: 0x27D39, offset: 0x27D39, size: 0x8, addend: 0x0, symName: __ZNSt3__112basic_stringIcNS_11char_traitsIcEENS_9allocatorIcEEEC2B8ue170006Ev, symObjAddr: 0xB01C, symBinAddr: 0x10000D4A8, symSize: 0x44 }
  - { offsetInCU: 0x27D63, offset: 0x27D63, size: 0x8, addend: 0x0, symName: __ZNKSt3__18ios_base3eofB8ue170006Ev, symObjAddr: 0xB060, symBinAddr: 0x10000D4EC, symSize: 0x24 }
  - { offsetInCU: 0x27D8B, offset: 0x27D8B, size: 0x8, addend: 0x0, symName: __ZNSt3__112basic_stringIcNS_11char_traitsIcEENS_9allocatorIcEEEC2B8ue170006ILi0EEEPKc, symObjAddr: 0xB084, symBinAddr: 0x10000D510, symSize: 0x58 }
  - { offsetInCU: 0x27DCA, offset: 0x27DCA, size: 0x8, addend: 0x0, symName: __ZNSt3__111char_traitsIcE6lengthB8ue170006EPKc, symObjAddr: 0xB0DC, symBinAddr: 0x10000D568, symSize: 0x34 }
  - { offsetInCU: 0x27EAA, offset: 0x27EAA, size: 0x8, addend: 0x0, symName: __ZNKSt3__113basic_istreamIcNS_11char_traitsIcEEE6sentrycvbB8ue170006Ev, symObjAddr: 0xB134, symBinAddr: 0x10000D5C0, symSize: 0x1C }
  - { offsetInCU: 0x27ED0, offset: 0x27ED0, size: 0x8, addend: 0x0, symName: __ZNKSt3__19basic_iosIcNS_11char_traitsIcEEE5rdbufB8ue170006Ev, symObjAddr: 0xB150, symBinAddr: 0x10000D5DC, symSize: 0x24 }
  - { offsetInCU: 0x27EF8, offset: 0x27EF8, size: 0x8, addend: 0x0, symName: __ZNSt3__115basic_streambufIcNS_11char_traitsIcEEE6sbumpcB8ue170006Ev, symObjAddr: 0xB174, symBinAddr: 0x10000D600, symSize: 0x78 }
  - { offsetInCU: 0x27F1E, offset: 0x27F1E, size: 0x8, addend: 0x0, symName: __ZNSt3__111char_traitsIcE11eq_int_typeB8ue170006Eii, symObjAddr: 0xB1EC, symBinAddr: 0x10000D678, symSize: 0x28 }
  - { offsetInCU: 0x27F51, offset: 0x27F51, size: 0x8, addend: 0x0, symName: __ZNSt3__111char_traitsIcE3eofB8ue170006Ev, symObjAddr: 0xB214, symBinAddr: 0x10000D6A0, symSize: 0x8 }
  - { offsetInCU: 0x27F65, offset: 0x27F65, size: 0x8, addend: 0x0, symName: __ZNSt3__111char_traitsIcE12to_char_typeB8ue170006Ei, symObjAddr: 0xB21C, symBinAddr: 0x10000D6A8, symSize: 0x18 }
  - { offsetInCU: 0x27F88, offset: 0x27F88, size: 0x8, addend: 0x0, symName: __ZNSt3__18ios_base18__setstate_nothrowB8ue170006Ej, symObjAddr: 0xB234, symBinAddr: 0x10000D6C0, symSize: 0x64 }
  - { offsetInCU: 0x27FBD, offset: 0x27FBD, size: 0x8, addend: 0x0, symName: __ZNKSt3__19basic_iosIcNS_11char_traitsIcEEE10exceptionsB8ue170006Ev, symObjAddr: 0xB298, symBinAddr: 0x10000D724, symSize: 0x24 }
  - { offsetInCU: 0x27FE3, offset: 0x27FE3, size: 0x8, addend: 0x0, symName: __ZNSt3__19basic_iosIcNS_11char_traitsIcEEE8setstateB8ue170006Ej, symObjAddr: 0xB2BC, symBinAddr: 0x10000D748, symSize: 0x2C }
  - { offsetInCU: 0x28018, offset: 0x28018, size: 0x8, addend: 0x0, symName: __ZNKSt3__18ios_base5rdbufB8ue170006Ev, symObjAddr: 0xB2E8, symBinAddr: 0x10000D774, symSize: 0x18 }
  - { offsetInCU: 0x2803E, offset: 0x2803E, size: 0x8, addend: 0x0, symName: __ZNSt3__111char_traitsIcE11to_int_typeB8ue170006Ec, symObjAddr: 0xB300, symBinAddr: 0x10000D78C, symSize: 0x14 }
  - { offsetInCU: 0x28062, offset: 0x28062, size: 0x8, addend: 0x0, symName: __ZNKSt3__18ios_base10exceptionsB8ue170006Ev, symObjAddr: 0xB314, symBinAddr: 0x10000D7A0, symSize: 0x18 }
  - { offsetInCU: 0x2808A, offset: 0x2808A, size: 0x8, addend: 0x0, symName: __ZNSt3__18ios_base8setstateB8ue170006Ej, symObjAddr: 0xB32C, symBinAddr: 0x10000D7B8, symSize: 0x34 }
  - { offsetInCU: 0x280C1, offset: 0x280C1, size: 0x8, addend: 0x0, symName: __ZNKSt3__112basic_stringIcNS_11char_traitsIcEENS_9allocatorIcEEE4dataB8ue170006Ev, symObjAddr: 0xB444, symBinAddr: 0x10000D8D0, symSize: 0x28 }
  - { offsetInCU: 0x280E7, offset: 0x280E7, size: 0x8, addend: 0x0, symName: __ZNKSt3__112basic_stringIcNS_11char_traitsIcEENS_9allocatorIcEEE4sizeB8ue170006Ev, symObjAddr: 0xB46C, symBinAddr: 0x10000D8F8, symSize: 0x54 }
  - { offsetInCU: 0x2810D, offset: 0x2810D, size: 0x8, addend: 0x0, symName: __ZNSt3__111char_traitsIcE4findB8ue170006EPKcmRS2_, symObjAddr: 0xB614, symBinAddr: 0x10000DAA0, symSize: 0x70 }
  - { offsetInCU: 0x2814C, offset: 0x2814C, size: 0x8, addend: 0x0, symName: __ZNSt3__111char_traitsIcE7compareB8ue170006EPKcS3_m, symObjAddr: 0xB684, symBinAddr: 0x10000DB10, symSize: 0x34 }
  - { offsetInCU: 0x2818B, offset: 0x2818B, size: 0x8, addend: 0x0, symName: __ZNKSt3__112basic_stringIcNS_11char_traitsIcEENS_9allocatorIcEEE13__get_pointerB8ue170006Ev, symObjAddr: 0xB70C, symBinAddr: 0x10000DB98, symSize: 0x54 }
  - { offsetInCU: 0x281B1, offset: 0x281B1, size: 0x8, addend: 0x0, symName: __ZNKSt3__112basic_stringIcNS_11char_traitsIcEENS_9allocatorIcEEE9__is_longB8ue170006Ev, symObjAddr: 0xB760, symBinAddr: 0x10000DBEC, symSize: 0x38 }
  - { offsetInCU: 0x281D7, offset: 0x281D7, size: 0x8, addend: 0x0, symName: __ZNKSt3__112basic_stringIcNS_11char_traitsIcEENS_9allocatorIcEEE18__get_long_pointerB8ue170006Ev, symObjAddr: 0xB798, symBinAddr: 0x10000DC24, symSize: 0x28 }
  - { offsetInCU: 0x281FD, offset: 0x281FD, size: 0x8, addend: 0x0, symName: __ZNKSt3__112basic_stringIcNS_11char_traitsIcEENS_9allocatorIcEEE19__get_short_pointerB8ue170006Ev, symObjAddr: 0xB7C0, symBinAddr: 0x10000DC4C, symSize: 0x28 }
  - { offsetInCU: 0x28223, offset: 0x28223, size: 0x8, addend: 0x0, symName: __ZNKSt3__117__compressed_pairINS_12basic_stringIcNS_11char_traitsIcEENS_9allocatorIcEEE5__repES5_E5firstB8ue170006Ev, symObjAddr: 0xB7E8, symBinAddr: 0x10000DC74, symSize: 0x24 }
  - { offsetInCU: 0x28249, offset: 0x28249, size: 0x8, addend: 0x0, symName: __ZNKSt3__122__compressed_pair_elemINS_12basic_stringIcNS_11char_traitsIcEENS_9allocatorIcEEE5__repELi0ELb0EE5__getB8ue170006Ev, symObjAddr: 0xB80C, symBinAddr: 0x10000DC98, symSize: 0x14 }
  - { offsetInCU: 0x2826F, offset: 0x2826F, size: 0x8, addend: 0x0, symName: __ZNSt3__114pointer_traitsIPKcE10pointer_toB8ue170006ERS1_, symObjAddr: 0xB820, symBinAddr: 0x10000DCAC, symSize: 0x14 }
  - { offsetInCU: 0x28292, offset: 0x28292, size: 0x8, addend: 0x0, symName: __ZNKSt3__112basic_stringIcNS_11char_traitsIcEENS_9allocatorIcEEE15__get_long_sizeB8ue170006Ev, symObjAddr: 0xB834, symBinAddr: 0x10000DCC0, symSize: 0x28 }
  - { offsetInCU: 0x282B8, offset: 0x282B8, size: 0x8, addend: 0x0, symName: __ZNKSt3__112basic_stringIcNS_11char_traitsIcEENS_9allocatorIcEEE16__get_short_sizeB8ue170006Ev, symObjAddr: 0xB85C, symBinAddr: 0x10000DCE8, symSize: 0x34 }
  - { offsetInCU: 0x28381, offset: 0x28381, size: 0x8, addend: 0x0, symName: __ZNSt3__114basic_ifstreamIcNS_11char_traitsIcEEEC1ERKNS_12basic_stringIcS2_NS_9allocatorIcEEEEj, symObjAddr: 0xB8D0, symBinAddr: 0x10000DD5C, symSize: 0x16C }
  - { offsetInCU: 0x283CB, offset: 0x283CB, size: 0x8, addend: 0x0, symName: __ZNKSt3__114basic_ifstreamIcNS_11char_traitsIcEEE7is_openEv, symObjAddr: 0xBA3C, symBinAddr: 0x10000DEC8, symSize: 0x2C }
  - { offsetInCU: 0x283F2, offset: 0x283F2, size: 0x8, addend: 0x0, symName: __ZrsIcERNSt3__113basic_istreamIcNS0_11char_traitsIcEEEES5_R4trieIT_E, symObjAddr: 0xBA68, symBinAddr: 0x10000DEF4, symSize: 0x80 }
  - { offsetInCU: 0x28448, offset: 0x28448, size: 0x8, addend: 0x0, symName: __ZNSt3__114basic_ifstreamIcNS_11char_traitsIcEEE5closeEv, symObjAddr: 0xBAE8, symBinAddr: 0x10000DF74, symSize: 0x58 }
  - { offsetInCU: 0x28475, offset: 0x28475, size: 0x8, addend: 0x0, symName: __ZNSt3__114basic_ifstreamIcNS_11char_traitsIcEEED1Ev, symObjAddr: 0xBB40, symBinAddr: 0x10000DFCC, symSize: 0x40 }
  - { offsetInCU: 0x284A2, offset: 0x284A2, size: 0x8, addend: 0x0, symName: __ZNSt3__112basic_stringIcNS_11char_traitsIcEENS_9allocatorIcEEE6appendB8ue170006ERKS5_, symObjAddr: 0xBB80, symBinAddr: 0x10000E00C, symSize: 0x4C }
  - { offsetInCU: 0x284D7, offset: 0x284D7, size: 0x8, addend: 0x0, symName: __ZNSt3__19basic_iosIcNS_11char_traitsIcEEEC2B8ue170006Ev, symObjAddr: 0xBBCC, symBinAddr: 0x10000E058, symSize: 0x44 }
  - { offsetInCU: 0x28501, offset: 0x28501, size: 0x8, addend: 0x0, symName: __ZNSt3__113basic_istreamIcNS_11char_traitsIcEEEC2B8ue170006EPNS_15basic_streambufIcS2_EE, symObjAddr: 0xBC10, symBinAddr: 0x10000E09C, symSize: 0x64 }
  - { offsetInCU: 0x28546, offset: 0x28546, size: 0x8, addend: 0x0, symName: __ZNSt3__113basic_filebufIcNS_11char_traitsIcEEE4openERKNS_12basic_stringIcS2_NS_9allocatorIcEEEEj, symObjAddr: 0xBC74, symBinAddr: 0x10000E100, symSize: 0x44 }
  - { offsetInCU: 0x2858A, offset: 0x2858A, size: 0x8, addend: 0x0, symName: __ZNSt3__18ios_baseC2B8ue170006Ev, symObjAddr: 0xBCB8, symBinAddr: 0x10000E144, symSize: 0x24 }
  - { offsetInCU: 0x285B4, offset: 0x285B4, size: 0x8, addend: 0x0, symName: __ZNSt3__19basic_iosIcNS_11char_traitsIcEEE4initB8ue170006EPNS_15basic_streambufIcS2_EE, symObjAddr: 0xBCDC, symBinAddr: 0x10000E168, symSize: 0x44 }
  - { offsetInCU: 0x285EB, offset: 0x285EB, size: 0x8, addend: 0x0, symName: __ZNKSt3__112basic_stringIcNS_11char_traitsIcEENS_9allocatorIcEEE5c_strB8ue170006Ev, symObjAddr: 0xBD20, symBinAddr: 0x10000E1AC, symSize: 0x24 }
  - { offsetInCU: 0x28611, offset: 0x28611, size: 0x8, addend: 0x0, symName: __ZNKSt3__113basic_filebufIcNS_11char_traitsIcEEE7is_openEv, symObjAddr: 0xBD44, symBinAddr: 0x10000E1D0, symSize: 0x24 }
  - { offsetInCU: 0x28638, offset: 0x28638, size: 0x8, addend: 0x0, symName: __Z1SIcEvRNSt3__113basic_istreamIcNS0_11char_traitsIcEEEER4trieIT_E, symObjAddr: 0xBD68, symBinAddr: 0x10000E1F4, symSize: 0x1C0 }
  - { offsetInCU: 0x286B4, offset: 0x286B4, size: 0x8, addend: 0x0, symName: __ZN4trieIcEaSERKS0_, symObjAddr: 0xBF28, symBinAddr: 0x10000E3B4, symSize: 0x54 }
  - { offsetInCU: 0x286E9, offset: 0x286E9, size: 0x8, addend: 0x0, symName: __Z1FIcEvRNSt3__113basic_istreamIcNS0_11char_traitsIcEEEER4trieIT_E, symObjAddr: 0xC028, symBinAddr: 0x10000E4B4, symSize: 0x2DC }
  - { offsetInCU: 0x28737, offset: 0x28737, size: 0x8, addend: 0x0, symName: __Z1HIcEvRNSt3__113basic_istreamIcNS0_11char_traitsIcEEEER4trieIT_E, symObjAddr: 0xC304, symBinAddr: 0x10000E790, symSize: 0x3C4 }
  - { offsetInCU: 0x28785, offset: 0x28785, size: 0x8, addend: 0x0, symName: __Z1RIcEvRNSt3__113basic_istreamIcNS0_11char_traitsIcEEEER4trieIT_E, symObjAddr: 0xC6FC, symBinAddr: 0x10000EB88, symSize: 0x1B8 }
  - { offsetInCU: 0x287EF, offset: 0x287EF, size: 0x8, addend: 0x0, symName: __ZNKSt3__19basic_iosIcNS_11char_traitsIcEEE4failB8ue170006Ev, symObjAddr: 0xC8B4, symBinAddr: 0x10000ED40, symSize: 0x28 }
  - { offsetInCU: 0x28815, offset: 0x28815, size: 0x8, addend: 0x0, symName: __ZNKSt3__18ios_base4failB8ue170006Ev, symObjAddr: 0xC8DC, symBinAddr: 0x10000ED68, symSize: 0x28 }
  - { offsetInCU: 0x2883D, offset: 0x2883D, size: 0x8, addend: 0x0, symName: __ZN3bagI4trieIcEEaSERKS2_, symObjAddr: 0xC904, symBinAddr: 0x10000ED90, symSize: 0x158 }
  - { offsetInCU: 0x288B5, offset: 0x288B5, size: 0x8, addend: 0x0, symName: __ZN3bagI4trieIcEE12setAllParentEPS1_, symObjAddr: 0xCA5C, symBinAddr: 0x10000EEE8, symSize: 0x84 }
  - { offsetInCU: 0x28905, offset: 0x28905, size: 0x8, addend: 0x0, symName: __ZNSt3__16vectorIP4trieIcENS_9allocatorIS3_EEEixB8ue170006Em, symObjAddr: 0xCAE0, symBinAddr: 0x10000EF6C, symSize: 0x24 }
  - { offsetInCU: 0x2893C, offset: 0x2893C, size: 0x8, addend: 0x0, symName: __ZNKSt3__16vectorIP4trieIcENS_9allocatorIS3_EEEixB8ue170006Em, symObjAddr: 0xCB04, symBinAddr: 0x10000EF90, symSize: 0x24 }
  - { offsetInCU: 0x28973, offset: 0x28973, size: 0x8, addend: 0x0, symName: __ZNSt3__16vectorIP4trieIcENS_9allocatorIS3_EEE9push_backB8ue170006ERKS3_, symObjAddr: 0xCB28, symBinAddr: 0x10000EFB4, symSize: 0x6C }
  - { offsetInCU: 0x289AA, offset: 0x289AA, size: 0x8, addend: 0x0, symName: __ZNSt3__16vectorIP4trieIcENS_9allocatorIS3_EEE22__construct_one_at_endB8ue170006IJRKS3_EEEvDpOT_, symObjAddr: 0xCB94, symBinAddr: 0x10000F020, symSize: 0x90 }
  - { offsetInCU: 0x289F9, offset: 0x289F9, size: 0x8, addend: 0x0, symName: __ZNSt3__16vectorIP4trieIcENS_9allocatorIS3_EEE21__push_back_slow_pathIRKS3_EEvOT_, symObjAddr: 0xCC24, symBinAddr: 0x10000F0B0, symSize: 0xD8 }
  - { offsetInCU: 0x28A72, offset: 0x28A72, size: 0x8, addend: 0x0, symName: __ZNSt3__16vectorIP4trieIcENS_9allocatorIS3_EEE21_ConstructTransactionC1B8ue170006ERS6_m, symObjAddr: 0xCCFC, symBinAddr: 0x10000F188, symSize: 0x3C }
  - { offsetInCU: 0x28ABA, offset: 0x28ABA, size: 0x8, addend: 0x0, symName: __ZNSt3__116allocator_traitsINS_9allocatorIP4trieIcEEEE9constructB8ue170006IS4_JRKS4_EvEEvRS5_PT_DpOT0_, symObjAddr: 0xCD38, symBinAddr: 0x10000F1C4, symSize: 0x34 }
  - { offsetInCU: 0x28B11, offset: 0x28B11, size: 0x8, addend: 0x0, symName: __ZNSt3__16vectorIP4trieIcENS_9allocatorIS3_EEE21_ConstructTransactionD1B8ue170006Ev, symObjAddr: 0xCD6C, symBinAddr: 0x10000F1F8, symSize: 0x2C }
  - { offsetInCU: 0x28B3B, offset: 0x28B3B, size: 0x8, addend: 0x0, symName: __ZNSt3__16vectorIP4trieIcENS_9allocatorIS3_EEE21_ConstructTransactionC2B8ue170006ERS6_m, symObjAddr: 0xCD98, symBinAddr: 0x10000F224, symSize: 0x44 }
  - { offsetInCU: 0x28B83, offset: 0x28B83, size: 0x8, addend: 0x0, symName: __ZNSt3__19allocatorIP4trieIcEE9constructB8ue170006IS3_JRKS3_EEEvPT_DpOT0_, symObjAddr: 0xCDDC, symBinAddr: 0x10000F268, symSize: 0x28 }
  - { offsetInCU: 0x28BD9, offset: 0x28BD9, size: 0x8, addend: 0x0, symName: __ZNSt3__16vectorIP4trieIcENS_9allocatorIS3_EEE21_ConstructTransactionD2B8ue170006Ev, symObjAddr: 0xCE04, symBinAddr: 0x10000F290, symSize: 0x20 }
  - { offsetInCU: 0x28C03, offset: 0x28C03, size: 0x8, addend: 0x0, symName: __ZNKSt3__16vectorIP4trieIcENS_9allocatorIS3_EEE11__recommendB8ue170006Em, symObjAddr: 0xCE24, symBinAddr: 0x10000F2B0, symSize: 0xB4 }
  - { offsetInCU: 0x28C58, offset: 0x28C58, size: 0x8, addend: 0x0, symName: __ZNSt3__114__split_bufferIP4trieIcERNS_9allocatorIS3_EEEC1EmmS6_, symObjAddr: 0xCED8, symBinAddr: 0x10000F364, symSize: 0x44 }
  - { offsetInCU: 0x28CAE, offset: 0x28CAE, size: 0x8, addend: 0x0, symName: __ZNSt3__114__split_bufferIP4trieIcERNS_9allocatorIS3_EEED1Ev, symObjAddr: 0xD02C, symBinAddr: 0x10000F4B8, symSize: 0x2C }
  - { offsetInCU: 0x28CDA, offset: 0x28CDA, size: 0x8, addend: 0x0, symName: __ZNKSt3__16vectorIP4trieIcENS_9allocatorIS3_EEE8max_sizeEv, symObjAddr: 0xD058, symBinAddr: 0x10000F4E4, symSize: 0x60 }
  - { offsetInCU: 0x28D02, offset: 0x28D02, size: 0x8, addend: 0x0, symName: __ZNKSt3__16vectorIP4trieIcENS_9allocatorIS3_EEE20__throw_length_errorB8ue170006Ev, symObjAddr: 0xD0B8, symBinAddr: 0x10000F544, symSize: 0x1C }
  - { offsetInCU: 0x28D33, offset: 0x28D33, size: 0x8, addend: 0x0, symName: __ZNSt3__116allocator_traitsINS_9allocatorIP4trieIcEEEE8max_sizeB8ue170006IS5_vEEmRKS5_, symObjAddr: 0xD12C, symBinAddr: 0x10000F5B8, symSize: 0x24 }
  - { offsetInCU: 0x28D61, offset: 0x28D61, size: 0x8, addend: 0x0, symName: __ZNKSt3__16vectorIP4trieIcENS_9allocatorIS3_EEE7__allocB8ue170006Ev, symObjAddr: 0xD150, symBinAddr: 0x10000F5DC, symSize: 0x28 }
  - { offsetInCU: 0x28D87, offset: 0x28D87, size: 0x8, addend: 0x0, symName: __ZNSt3__114numeric_limitsIlE3maxB8ue170006Ev, symObjAddr: 0xD178, symBinAddr: 0x10000F604, symSize: 0x14 }
  - { offsetInCU: 0x28DB0, offset: 0x28DB0, size: 0x8, addend: 0x0, symName: __ZNKSt3__16__lessIvvEclB8ue170006ImmEEbRKT_RKT0_, symObjAddr: 0xD1E0, symBinAddr: 0x10000F66C, symSize: 0x34 }
  - { offsetInCU: 0x28E04, offset: 0x28E04, size: 0x8, addend: 0x0, symName: __ZNKSt3__19allocatorIP4trieIcEE8max_sizeB8ue170006Ev, symObjAddr: 0xD214, symBinAddr: 0x10000F6A0, symSize: 0x14 }
  - { offsetInCU: 0x28E2A, offset: 0x28E2A, size: 0x8, addend: 0x0, symName: __ZNKSt3__117__compressed_pairIPP4trieIcENS_9allocatorIS3_EEE6secondB8ue170006Ev, symObjAddr: 0xD228, symBinAddr: 0x10000F6B4, symSize: 0x24 }
  - { offsetInCU: 0x28E50, offset: 0x28E50, size: 0x8, addend: 0x0, symName: __ZNKSt3__122__compressed_pair_elemINS_9allocatorIP4trieIcEEELi1ELb1EE5__getB8ue170006Ev, symObjAddr: 0xD24C, symBinAddr: 0x10000F6D8, symSize: 0x14 }
  - { offsetInCU: 0x28E76, offset: 0x28E76, size: 0x8, addend: 0x0, symName: __ZNSt3__123__libcpp_numeric_limitsIlLb1EE3maxB8ue170006Ev, symObjAddr: 0xD260, symBinAddr: 0x10000F6EC, symSize: 0x8 }
  - { offsetInCU: 0x28E8A, offset: 0x28E8A, size: 0x8, addend: 0x0, symName: __ZNSt12length_errorC1B8ue170006EPKc, symObjAddr: 0xD2CC, symBinAddr: 0x10000F758, symSize: 0x34 }
  - { offsetInCU: 0x28EC2, offset: 0x28EC2, size: 0x8, addend: 0x0, symName: __ZNSt12length_errorC2B8ue170006EPKc, symObjAddr: 0xD300, symBinAddr: 0x10000F78C, symSize: 0x4C }
  - { offsetInCU: 0x28EFA, offset: 0x28EFA, size: 0x8, addend: 0x0, symName: __ZNSt3__114__split_bufferIP4trieIcERNS_9allocatorIS3_EEEC2EmmS6_, symObjAddr: 0xD3A0, symBinAddr: 0x10000F82C, symSize: 0xD4 }
  - { offsetInCU: 0x28F73, offset: 0x28F73, size: 0x8, addend: 0x0, symName: __ZNSt3__117__compressed_pairIPP4trieIcERNS_9allocatorIS3_EEEC1B8ue170006IDnS7_EEOT_OT0_, symObjAddr: 0xD474, symBinAddr: 0x10000F900, symSize: 0x3C }
  - { offsetInCU: 0x28FCB, offset: 0x28FCB, size: 0x8, addend: 0x0, symName: __ZNSt3__114__split_bufferIP4trieIcERNS_9allocatorIS3_EEE7__allocB8ue170006Ev, symObjAddr: 0xD4F0, symBinAddr: 0x10000F97C, symSize: 0x28 }
  - { offsetInCU: 0x28FF1, offset: 0x28FF1, size: 0x8, addend: 0x0, symName: __ZNSt3__114__split_bufferIP4trieIcERNS_9allocatorIS3_EEE9__end_capB8ue170006Ev, symObjAddr: 0xD518, symBinAddr: 0x10000F9A4, symSize: 0x28 }
  - { offsetInCU: 0x29017, offset: 0x29017, size: 0x8, addend: 0x0, symName: __ZNSt3__117__compressed_pairIPP4trieIcERNS_9allocatorIS3_EEEC2B8ue170006IDnS7_EEOT_OT0_, symObjAddr: 0xD540, symBinAddr: 0x10000F9CC, symSize: 0x48 }
  - { offsetInCU: 0x2906F, offset: 0x2906F, size: 0x8, addend: 0x0, symName: __ZNSt3__122__compressed_pair_elemIPP4trieIcELi0ELb0EEC2B8ue170006IDnvEEOT_, symObjAddr: 0xD588, symBinAddr: 0x10000FA14, symSize: 0x1C }
  - { offsetInCU: 0x290B1, offset: 0x290B1, size: 0x8, addend: 0x0, symName: __ZNSt3__122__compressed_pair_elemIRNS_9allocatorIP4trieIcEEELi1ELb0EEC2B8ue170006IS6_vEEOT_, symObjAddr: 0xD5A4, symBinAddr: 0x10000FA30, symSize: 0x20 }
  - { offsetInCU: 0x290F3, offset: 0x290F3, size: 0x8, addend: 0x0, symName: __ZNSt3__19allocatorIP4trieIcEE8allocateB8ue170006Em, symObjAddr: 0xD5C4, symBinAddr: 0x10000FA50, symSize: 0x58 }
  - { offsetInCU: 0x29127, offset: 0x29127, size: 0x8, addend: 0x0, symName: __ZNSt3__117__compressed_pairIPP4trieIcERNS_9allocatorIS3_EEE6secondB8ue170006Ev, symObjAddr: 0xD700, symBinAddr: 0x10000FB8C, symSize: 0x28 }
  - { offsetInCU: 0x2914D, offset: 0x2914D, size: 0x8, addend: 0x0, symName: __ZNSt3__122__compressed_pair_elemIRNS_9allocatorIP4trieIcEEELi1ELb0EE5__getB8ue170006Ev, symObjAddr: 0xD728, symBinAddr: 0x10000FBB4, symSize: 0x18 }
  - { offsetInCU: 0x29173, offset: 0x29173, size: 0x8, addend: 0x0, symName: __ZNSt3__117__compressed_pairIPP4trieIcERNS_9allocatorIS3_EEE5firstB8ue170006Ev, symObjAddr: 0xD740, symBinAddr: 0x10000FBCC, symSize: 0x24 }
  - { offsetInCU: 0x29199, offset: 0x29199, size: 0x8, addend: 0x0, symName: __ZNSt3__116reverse_iteratorIPP4trieIcEEC1B8ue170006ES4_, symObjAddr: 0xD7DC, symBinAddr: 0x10000FC68, symSize: 0x34 }
  - { offsetInCU: 0x291D1, offset: 0x291D1, size: 0x8, addend: 0x0, symName: __ZNKSt3__116reverse_iteratorIPP4trieIcEE4baseB8ue170006Ev, symObjAddr: 0xD810, symBinAddr: 0x10000FC9C, symSize: 0x18 }
  - { offsetInCU: 0x291F7, offset: 0x291F7, size: 0x8, addend: 0x0, symName: __ZNKSt3__16vectorIP4trieIcENS_9allocatorIS3_EEE14__annotate_newB8ue170006Em, symObjAddr: 0xD864, symBinAddr: 0x10000FCF0, symSize: 0xAC }
  - { offsetInCU: 0x29252, offset: 0x29252, size: 0x8, addend: 0x0, symName: __ZNKSt3__111__move_loopINS_17_ClassicAlgPolicyEEclB8ue170006INS_16reverse_iteratorIPP4trieIcEEES9_S9_EENS_4pairIT_T1_EESB_T0_SC_, symObjAddr: 0xDC00, symBinAddr: 0x10001008C, symSize: 0xA0 }
  - { offsetInCU: 0x292BD, offset: 0x292BD, size: 0x8, addend: 0x0, symName: __ZNSt3__18_IterOpsINS_17_ClassicAlgPolicyEE11__iter_moveB8ue170006IRNS_16reverse_iteratorIPP4trieIcEEEEENS_9enable_ifIXsr12is_referenceIDTdeclsr3stdE7declvalIRT_EEEEE5valueEDTclsr3stdE4movedeclsr3stdE7declvalISD_EEEEE4typeEOSC_, symObjAddr: 0xDE34, symBinAddr: 0x1000102C0, symSize: 0x28 }
  - { offsetInCU: 0x292E9, offset: 0x292E9, size: 0x8, addend: 0x0, symName: __ZNKSt3__116reverse_iteratorIPP4trieIcEEdeB8ue170006Ev, symObjAddr: 0xDE5C, symBinAddr: 0x1000102E8, symSize: 0x28 }
  - { offsetInCU: 0x2931D, offset: 0x2931D, size: 0x8, addend: 0x0, symName: __ZNSt3__116reverse_iteratorIPP4trieIcEEppB8ue170006Ev, symObjAddr: 0xDE84, symBinAddr: 0x100010310, symSize: 0x20 }
  - { offsetInCU: 0x29343, offset: 0x29343, size: 0x8, addend: 0x0, symName: __ZNSt3__18_IterOpsINS_17_ClassicAlgPolicyEE25__validate_iter_referenceB8ue170006IRNS_16reverse_iteratorIPP4trieIcEEEEEvv, symObjAddr: 0xDEA4, symBinAddr: 0x100010330, symSize: 0x4 }
  - { offsetInCU: 0x29361, offset: 0x29361, size: 0x8, addend: 0x0, symName: __ZNSt3__118__unwrap_iter_implINS_16reverse_iteratorIPP4trieIcEEELb0EE8__unwrapB8ue170006ES6_, symObjAddr: 0xDEA8, symBinAddr: 0x100010334, symSize: 0x24 }
  - { offsetInCU: 0x2938A, offset: 0x2938A, size: 0x8, addend: 0x0, symName: __ZNSt3__14pairINS_16reverse_iteratorIPP4trieIcEEES6_EC1B8ue170006IS6_S6_LPv0EEEOT_OT0_, symObjAddr: 0xDECC, symBinAddr: 0x100010358, symSize: 0x3C }
  - { offsetInCU: 0x293E8, offset: 0x293E8, size: 0x8, addend: 0x0, symName: __ZNSt3__14pairINS_16reverse_iteratorIPP4trieIcEEES6_EC2B8ue170006IS6_S6_LPv0EEEOT_OT0_, symObjAddr: 0xDF08, symBinAddr: 0x100010394, symSize: 0x34 }
  - { offsetInCU: 0x29446, offset: 0x29446, size: 0x8, addend: 0x0, symName: __ZNSt3__118__unwrap_iter_implINS_16reverse_iteratorIPP4trieIcEEELb0EE8__rewrapB8ue170006ES6_S6_, symObjAddr: 0xDF3C, symBinAddr: 0x1000103C8, symSize: 0x2C }
  - { offsetInCU: 0x29473, offset: 0x29473, size: 0x8, addend: 0x0, symName: __ZNSt3__116reverse_iteratorIPP4trieIcEEC2B8ue170006ES4_, symObjAddr: 0xDF68, symBinAddr: 0x1000103F4, symSize: 0x28 }
  - { offsetInCU: 0x294AB, offset: 0x294AB, size: 0x8, addend: 0x0, symName: __ZNSt3__114__split_bufferIP4trieIcERNS_9allocatorIS3_EEED2Ev, symObjAddr: 0xDF90, symBinAddr: 0x10001041C, symSize: 0x8C }
  - { offsetInCU: 0x294D7, offset: 0x294D7, size: 0x8, addend: 0x0, symName: __ZNSt3__114__split_bufferIP4trieIcERNS_9allocatorIS3_EEE5clearB8ue170006Ev, symObjAddr: 0xE01C, symBinAddr: 0x1000104A8, symSize: 0x28 }
  - { offsetInCU: 0x294FD, offset: 0x294FD, size: 0x8, addend: 0x0, symName: __ZNKSt3__114__split_bufferIP4trieIcERNS_9allocatorIS3_EEE8capacityB8ue170006Ev, symObjAddr: 0xE044, symBinAddr: 0x1000104D0, symSize: 0x40 }
  - { offsetInCU: 0x29523, offset: 0x29523, size: 0x8, addend: 0x0, symName: __ZNSt3__114__split_bufferIP4trieIcERNS_9allocatorIS3_EEE17__destruct_at_endB8ue170006EPS3_, symObjAddr: 0xE084, symBinAddr: 0x100010510, symSize: 0x2C }
  - { offsetInCU: 0x29557, offset: 0x29557, size: 0x8, addend: 0x0, symName: __ZNSt3__114__split_bufferIP4trieIcERNS_9allocatorIS3_EEE17__destruct_at_endB8ue170006EPS3_NS_17integral_constantIbLb0EEE, symObjAddr: 0xE0B0, symBinAddr: 0x10001053C, symSize: 0x80 }
  - { offsetInCU: 0x29597, offset: 0x29597, size: 0x8, addend: 0x0, symName: __ZNKSt3__114__split_bufferIP4trieIcERNS_9allocatorIS3_EEE9__end_capB8ue170006Ev, symObjAddr: 0xE130, symBinAddr: 0x1000105BC, symSize: 0x28 }
  - { offsetInCU: 0x295BD, offset: 0x295BD, size: 0x8, addend: 0x0, symName: __ZNKSt3__117__compressed_pairIPP4trieIcERNS_9allocatorIS3_EEE5firstB8ue170006Ev, symObjAddr: 0xE158, symBinAddr: 0x1000105E4, symSize: 0x24 }
  - { offsetInCU: 0x295E3, offset: 0x295E3, size: 0x8, addend: 0x0, symName: __ZNSt3__114basic_ifstreamIcNS_11char_traitsIcEEED2Ev, symObjAddr: 0xE17C, symBinAddr: 0x100010608, symSize: 0x64 }
  - { offsetInCU: 0x2961D, offset: 0x2961D, size: 0x8, addend: 0x0, symName: __ZTv0_n24_NSt3__114basic_ifstreamIcNS_11char_traitsIcEEED1Ev, symObjAddr: 0xE1E0, symBinAddr: 0x10001066C, symSize: 0x28 }
  - { offsetInCU: 0x29634, offset: 0x29634, size: 0x8, addend: 0x0, symName: __ZN4trieIcED2Ev, symObjAddr: 0xE208, symBinAddr: 0x100010694, symSize: 0x90 }
  - { offsetInCU: 0x29660, offset: 0x29660, size: 0x8, addend: 0x0, symName: __ZN3bagI4trieIcEED1Ev, symObjAddr: 0xE298, symBinAddr: 0x100010724, symSize: 0x2C }
  - { offsetInCU: 0x2968A, offset: 0x2968A, size: 0x8, addend: 0x0, symName: __ZN3bagI4trieIcEED2Ev, symObjAddr: 0xE2C4, symBinAddr: 0x100010750, symSize: 0xBC }
  - { offsetInCU: 0x29705, offset: 0x29705, size: 0x8, addend: 0x0, symName: __ZNSt3__16vectorIP4trieIcENS_9allocatorIS3_EEE5beginB8ue170006Ev, symObjAddr: 0xE380, symBinAddr: 0x10001080C, symSize: 0x30 }
  - { offsetInCU: 0x2972D, offset: 0x2972D, size: 0x8, addend: 0x0, symName: __ZNSt3__16vectorIP4trieIcENS_9allocatorIS3_EEE3endB8ue170006Ev, symObjAddr: 0xE3B0, symBinAddr: 0x10001083C, symSize: 0x30 }
  - { offsetInCU: 0x29755, offset: 0x29755, size: 0x8, addend: 0x0, symName: __ZNKSt3__111__wrap_iterIPP4trieIcEEdeB8ue170006Ev, symObjAddr: 0xE414, symBinAddr: 0x1000108A0, symSize: 0x18 }
  - { offsetInCU: 0x2977B, offset: 0x2977B, size: 0x8, addend: 0x0, symName: __ZNSt3__111__wrap_iterIPP4trieIcEEppB8ue170006Ev, symObjAddr: 0xE42C, symBinAddr: 0x1000108B8, symSize: 0x20 }
  - { offsetInCU: 0x297A1, offset: 0x297A1, size: 0x8, addend: 0x0, symName: __ZNSt3__16vectorIP4trieIcENS_9allocatorIS3_EEE11__make_iterB8ue170006EPS3_, symObjAddr: 0xE44C, symBinAddr: 0x1000108D8, symSize: 0x30 }
  - { offsetInCU: 0x297D6, offset: 0x297D6, size: 0x8, addend: 0x0, symName: __ZNSt3__111__wrap_iterIPP4trieIcEEC1B8ue170006ES4_, symObjAddr: 0xE47C, symBinAddr: 0x100010908, symSize: 0x34 }
  - { offsetInCU: 0x2980E, offset: 0x2980E, size: 0x8, addend: 0x0, symName: __ZNSt3__111__wrap_iterIPP4trieIcEEC2B8ue170006ES4_, symObjAddr: 0xE4B0, symBinAddr: 0x10001093C, symSize: 0x20 }
  - { offsetInCU: 0x29846, offset: 0x29846, size: 0x8, addend: 0x0, symName: __ZNKSt3__111__wrap_iterIPP4trieIcEE4baseB8ue170006Ev, symObjAddr: 0xE518, symBinAddr: 0x1000109A4, symSize: 0x18 }
  - { offsetInCU: 0x2986C, offset: 0x2986C, size: 0x8, addend: 0x0, symName: __ZNSt3__16vectorIcNS_9allocatorIcEEEC2B8ue170006ESt16initializer_listIcE, symObjAddr: 0xE530, symBinAddr: 0x1000109BC, symSize: 0x120 }
  - { offsetInCU: 0x298BC, offset: 0x298BC, size: 0x8, addend: 0x0, symName: __ZNSt3__117__compressed_pairIPcNS_9allocatorIcEEEC1B8ue170006IDnNS_18__default_init_tagEEEOT_OT0_, symObjAddr: 0xE650, symBinAddr: 0x100010ADC, symSize: 0x3C }
  - { offsetInCU: 0x29914, offset: 0x29914, size: 0x8, addend: 0x0, symName: __ZNSt3__16vectorIcNS_9allocatorIcEEE16__destroy_vectorC1B8ue170006ERS3_, symObjAddr: 0xE6CC, symBinAddr: 0x100010B58, symSize: 0x34 }
  - { offsetInCU: 0x2994D, offset: 0x2994D, size: 0x8, addend: 0x0, symName: __ZNKSt16initializer_listIcE4sizeB8ue170006Ev, symObjAddr: 0xE700, symBinAddr: 0x100010B8C, symSize: 0x18 }
  - { offsetInCU: 0x29973, offset: 0x29973, size: 0x8, addend: 0x0, symName: __ZNSt3__16vectorIcNS_9allocatorIcEEE11__vallocateB8ue170006Em, symObjAddr: 0xE718, symBinAddr: 0x100010BA4, symSize: 0xAC }
  - { offsetInCU: 0x299B7, offset: 0x299B7, size: 0x8, addend: 0x0, symName: __ZNSt3__16vectorIcNS_9allocatorIcEEE18__construct_at_endIPKcS6_EEvT_T0_m, symObjAddr: 0xE7C4, symBinAddr: 0x100010C50, symSize: 0x8C }
  - { offsetInCU: 0x29A2D, offset: 0x29A2D, size: 0x8, addend: 0x0, symName: __ZNKSt16initializer_listIcE5beginB8ue170006Ev, symObjAddr: 0xE850, symBinAddr: 0x100010CDC, symSize: 0x18 }
  - { offsetInCU: 0x29A53, offset: 0x29A53, size: 0x8, addend: 0x0, symName: __ZNKSt16initializer_listIcE3endB8ue170006Ev, symObjAddr: 0xE868, symBinAddr: 0x100010CF4, symSize: 0x20 }
  - { offsetInCU: 0x29A79, offset: 0x29A79, size: 0x8, addend: 0x0, symName: __ZNSt3__128__exception_guard_exceptionsINS_6vectorIcNS_9allocatorIcEEE16__destroy_vectorEE10__completeB8ue170006Ev, symObjAddr: 0xE888, symBinAddr: 0x100010D14, symSize: 0x1C }
  - { offsetInCU: 0x29A9F, offset: 0x29A9F, size: 0x8, addend: 0x0, symName: __ZNSt3__128__exception_guard_exceptionsINS_6vectorIcNS_9allocatorIcEEE16__destroy_vectorEED1B8ue170006Ev, symObjAddr: 0xE8A4, symBinAddr: 0x100010D30, symSize: 0x2C }
  - { offsetInCU: 0x29AC9, offset: 0x29AC9, size: 0x8, addend: 0x0, symName: __ZNSt3__117__compressed_pairIPcNS_9allocatorIcEEEC2B8ue170006IDnNS_18__default_init_tagEEEOT_OT0_, symObjAddr: 0xE8D0, symBinAddr: 0x100010D5C, symSize: 0x40 }
  - { offsetInCU: 0x29B21, offset: 0x29B21, size: 0x8, addend: 0x0, symName: __ZNSt3__122__compressed_pair_elemIPcLi0ELb0EEC2B8ue170006IDnvEEOT_, symObjAddr: 0xE910, symBinAddr: 0x100010D9C, symSize: 0x1C }
  - { offsetInCU: 0x29B63, offset: 0x29B63, size: 0x8, addend: 0x0, symName: __ZNSt3__128__exception_guard_exceptionsINS_6vectorIcNS_9allocatorIcEEE16__destroy_vectorEEC1B8ue170006ES5_, symObjAddr: 0xE92C, symBinAddr: 0x100010DB8, symSize: 0x34 }
  - { offsetInCU: 0x29B9B, offset: 0x29B9B, size: 0x8, addend: 0x0, symName: __ZNSt3__128__exception_guard_exceptionsINS_6vectorIcNS_9allocatorIcEEE16__destroy_vectorEEC2B8ue170006ES5_, symObjAddr: 0xE960, symBinAddr: 0x100010DEC, symSize: 0x24 }
  - { offsetInCU: 0x29BD3, offset: 0x29BD3, size: 0x8, addend: 0x0, symName: __ZNSt3__16vectorIcNS_9allocatorIcEEE16__destroy_vectorC2B8ue170006ERS3_, symObjAddr: 0xE984, symBinAddr: 0x100010E10, symSize: 0x20 }
  - { offsetInCU: 0x29C0C, offset: 0x29C0C, size: 0x8, addend: 0x0, symName: __ZNKSt3__16vectorIcNS_9allocatorIcEEE8max_sizeEv, symObjAddr: 0xE9A4, symBinAddr: 0x100010E30, symSize: 0x60 }
  - { offsetInCU: 0x29C34, offset: 0x29C34, size: 0x8, addend: 0x0, symName: __ZNKSt3__16vectorIcNS_9allocatorIcEEE20__throw_length_errorB8ue170006Ev, symObjAddr: 0xEA04, symBinAddr: 0x100010E90, symSize: 0x1C }
  - { offsetInCU: 0x29C5A, offset: 0x29C5A, size: 0x8, addend: 0x0, symName: __ZNSt3__16vectorIcNS_9allocatorIcEEE7__allocB8ue170006Ev, symObjAddr: 0xEA60, symBinAddr: 0x100010EEC, symSize: 0x28 }
  - { offsetInCU: 0x29C80, offset: 0x29C80, size: 0x8, addend: 0x0, symName: __ZNSt3__16vectorIcNS_9allocatorIcEEE9__end_capB8ue170006Ev, symObjAddr: 0xEA88, symBinAddr: 0x100010F14, symSize: 0x28 }
  - { offsetInCU: 0x29CA6, offset: 0x29CA6, size: 0x8, addend: 0x0, symName: __ZNKSt3__16vectorIcNS_9allocatorIcEEE14__annotate_newB8ue170006Em, symObjAddr: 0xEAB0, symBinAddr: 0x100010F3C, symSize: 0xAC }
  - { offsetInCU: 0x29CE6, offset: 0x29CE6, size: 0x8, addend: 0x0, symName: __ZNSt3__116allocator_traitsINS_9allocatorIcEEE8max_sizeB8ue170006IS2_vEEmRKS2_, symObjAddr: 0xEB5C, symBinAddr: 0x100010FE8, symSize: 0x24 }
  - { offsetInCU: 0x29D14, offset: 0x29D14, size: 0x8, addend: 0x0, symName: __ZNKSt3__16vectorIcNS_9allocatorIcEEE7__allocB8ue170006Ev, symObjAddr: 0xEB80, symBinAddr: 0x10001100C, symSize: 0x28 }
  - { offsetInCU: 0x29D3A, offset: 0x29D3A, size: 0x8, addend: 0x0, symName: __ZNKSt3__19allocatorIcE8max_sizeB8ue170006Ev, symObjAddr: 0xEBA8, symBinAddr: 0x100011034, symSize: 0x14 }
  - { offsetInCU: 0x29D60, offset: 0x29D60, size: 0x8, addend: 0x0, symName: __ZNKSt3__117__compressed_pairIPcNS_9allocatorIcEEE6secondB8ue170006Ev, symObjAddr: 0xEBBC, symBinAddr: 0x100011048, symSize: 0x24 }
  - { offsetInCU: 0x29D86, offset: 0x29D86, size: 0x8, addend: 0x0, symName: __ZNKSt3__122__compressed_pair_elemINS_9allocatorIcEELi1ELb1EE5__getB8ue170006Ev, symObjAddr: 0xEBE0, symBinAddr: 0x10001106C, symSize: 0x14 }
  - { offsetInCU: 0x29DAC, offset: 0x29DAC, size: 0x8, addend: 0x0, symName: __ZNSt3__19allocatorIcE8allocateB8ue170006Em, symObjAddr: 0xEBF4, symBinAddr: 0x100011080, symSize: 0x58 }
  - { offsetInCU: 0x29DE0, offset: 0x29DE0, size: 0x8, addend: 0x0, symName: __ZNSt3__117__compressed_pairIPcNS_9allocatorIcEEE6secondB8ue170006Ev, symObjAddr: 0xEC4C, symBinAddr: 0x1000110D8, symSize: 0x24 }
  - { offsetInCU: 0x29E06, offset: 0x29E06, size: 0x8, addend: 0x0, symName: __ZNSt3__122__compressed_pair_elemINS_9allocatorIcEELi1ELb1EE5__getB8ue170006Ev, symObjAddr: 0xEC70, symBinAddr: 0x1000110FC, symSize: 0x14 }
  - { offsetInCU: 0x29E2C, offset: 0x29E2C, size: 0x8, addend: 0x0, symName: __ZNSt3__117__compressed_pairIPcNS_9allocatorIcEEE5firstB8ue170006Ev, symObjAddr: 0xEC84, symBinAddr: 0x100011110, symSize: 0x24 }
  - { offsetInCU: 0x29E52, offset: 0x29E52, size: 0x8, addend: 0x0, symName: __ZNSt3__122__compressed_pair_elemIPcLi0ELb0EE5__getB8ue170006Ev, symObjAddr: 0xECA8, symBinAddr: 0x100011134, symSize: 0x14 }
  - { offsetInCU: 0x29E78, offset: 0x29E78, size: 0x8, addend: 0x0, symName: __ZNKSt3__16vectorIcNS_9allocatorIcEEE31__annotate_contiguous_containerB8ue170006EPKvS5_S5_S5_, symObjAddr: 0xECBC, symBinAddr: 0x100011148, symSize: 0x20 }
  - { offsetInCU: 0x29ECA, offset: 0x29ECA, size: 0x8, addend: 0x0, symName: __ZNKSt3__16vectorIcNS_9allocatorIcEEE4dataB8ue170006Ev, symObjAddr: 0xECDC, symBinAddr: 0x100011168, symSize: 0x28 }
  - { offsetInCU: 0x29EF0, offset: 0x29EF0, size: 0x8, addend: 0x0, symName: __ZNKSt3__16vectorIcNS_9allocatorIcEEE8capacityB8ue170006Ev, symObjAddr: 0xED04, symBinAddr: 0x100011190, symSize: 0x38 }
  - { offsetInCU: 0x29F16, offset: 0x29F16, size: 0x8, addend: 0x0, symName: __ZNKSt3__16vectorIcNS_9allocatorIcEEE9__end_capB8ue170006Ev, symObjAddr: 0xED50, symBinAddr: 0x1000111DC, symSize: 0x28 }
  - { offsetInCU: 0x29F3C, offset: 0x29F3C, size: 0x8, addend: 0x0, symName: __ZNKSt3__117__compressed_pairIPcNS_9allocatorIcEEE5firstB8ue170006Ev, symObjAddr: 0xED78, symBinAddr: 0x100011204, symSize: 0x24 }
  - { offsetInCU: 0x29F62, offset: 0x29F62, size: 0x8, addend: 0x0, symName: __ZNKSt3__122__compressed_pair_elemIPcLi0ELb0EE5__getB8ue170006Ev, symObjAddr: 0xED9C, symBinAddr: 0x100011228, symSize: 0x14 }
  - { offsetInCU: 0x29FA3, offset: 0x29FA3, size: 0x8, addend: 0x0, symName: __ZNSt3__16vectorIcNS_9allocatorIcEEE21_ConstructTransactionC1B8ue170006ERS3_m, symObjAddr: 0xEDB0, symBinAddr: 0x10001123C, symSize: 0x3C }
  - { offsetInCU: 0x29FEB, offset: 0x29FEB, size: 0x8, addend: 0x0, symName: __ZNSt3__16vectorIcNS_9allocatorIcEEE21_ConstructTransactionD1B8ue170006Ev, symObjAddr: 0xEE6C, symBinAddr: 0x1000112F8, symSize: 0x2C }
  - { offsetInCU: 0x2A015, offset: 0x2A015, size: 0x8, addend: 0x0, symName: __ZNSt3__16vectorIcNS_9allocatorIcEEE21_ConstructTransactionC2B8ue170006ERS3_m, symObjAddr: 0xEE98, symBinAddr: 0x100011324, symSize: 0x44 }
  - { offsetInCU: 0x2A07F, offset: 0x2A07F, size: 0x8, addend: 0x0, symName: __ZNSt3__14pairIPKcS2_EC1B8ue170006IS2_S2_LPv0EEEOT_OT0_, symObjAddr: 0xF030, symBinAddr: 0x1000114BC, symSize: 0x3C }
  - { offsetInCU: 0x2A0DD, offset: 0x2A0DD, size: 0x8, addend: 0x0, symName: __ZNSt3__14pairIPKcS2_EC2B8ue170006IS2_S2_LPv0EEEOT_OT0_, symObjAddr: 0xF06C, symBinAddr: 0x1000114F8, symSize: 0x34 }
  - { offsetInCU: 0x2A13B, offset: 0x2A13B, size: 0x8, addend: 0x0, symName: __ZNSt3__118__unwrap_iter_implIPKcLb1EE8__unwrapB8ue170006ES2_, symObjAddr: 0xF0A0, symBinAddr: 0x10001152C, symSize: 0x24 }
  - { offsetInCU: 0x2A184, offset: 0x2A184, size: 0x8, addend: 0x0, symName: __ZNKSt3__114__copy_trivialclB8ue170006IKccLi0EEENS_4pairIPT_PT0_EES5_S5_S7_, symObjAddr: 0xF240, symBinAddr: 0x1000116CC, symSize: 0x48 }
  - { offsetInCU: 0x2A1F8, offset: 0x2A1F8, size: 0x8, addend: 0x0, symName: __ZNSt3__14pairIPKcPcEC1B8ue170006IRS2_S3_LPv0EEEOT_OT0_, symObjAddr: 0xF400, symBinAddr: 0x10001188C, symSize: 0x3C }
  - { offsetInCU: 0x2A256, offset: 0x2A256, size: 0x8, addend: 0x0, symName: __ZNSt3__14pairIPKcPcEC2B8ue170006IRS2_S3_LPv0EEEOT_OT0_, symObjAddr: 0xF43C, symBinAddr: 0x1000118C8, symSize: 0x34 }
  - { offsetInCU: 0x2A2B4, offset: 0x2A2B4, size: 0x8, addend: 0x0, symName: __ZNSt3__14pairIPKcPcEC1B8ue170006IS2_S3_LPv0EEEOT_OT0_, symObjAddr: 0xF470, symBinAddr: 0x1000118FC, symSize: 0x3C }
  - { offsetInCU: 0x2A312, offset: 0x2A312, size: 0x8, addend: 0x0, symName: __ZNSt3__14pairIPKcPcEC2B8ue170006IS2_S3_LPv0EEEOT_OT0_, symObjAddr: 0xF4AC, symBinAddr: 0x100011938, symSize: 0x34 }
  - { offsetInCU: 0x2A370, offset: 0x2A370, size: 0x8, addend: 0x0, symName: __ZNSt3__118__unwrap_iter_implIPKcLb1EE8__rewrapB8ue170006ES2_S2_, symObjAddr: 0xF51C, symBinAddr: 0x1000119A8, symSize: 0x48 }
  - { offsetInCU: 0x2A3A1, offset: 0x2A3A1, size: 0x8, addend: 0x0, symName: __ZNSt3__118__unwrap_iter_implIPcLb1EE8__unwrapB8ue170006ES1_, symObjAddr: 0xF564, symBinAddr: 0x1000119F0, symSize: 0x24 }
  - { offsetInCU: 0x2A3C4, offset: 0x2A3C4, size: 0x8, addend: 0x0, symName: __ZNSt3__118__unwrap_iter_implIPcLb1EE8__rewrapB8ue170006ES1_S1_, symObjAddr: 0xF588, symBinAddr: 0x100011A14, symSize: 0x48 }
  - { offsetInCU: 0x2A3F5, offset: 0x2A3F5, size: 0x8, addend: 0x0, symName: __ZNSt3__16vectorIcNS_9allocatorIcEEE21_ConstructTransactionD2B8ue170006Ev, symObjAddr: 0xF5D0, symBinAddr: 0x100011A5C, symSize: 0x20 }
  - { offsetInCU: 0x2A41F, offset: 0x2A41F, size: 0x8, addend: 0x0, symName: __ZNSt3__128__exception_guard_exceptionsINS_6vectorIcNS_9allocatorIcEEE16__destroy_vectorEED2B8ue170006Ev, symObjAddr: 0xF5F0, symBinAddr: 0x100011A7C, symSize: 0x50 }
  - { offsetInCU: 0x2A449, offset: 0x2A449, size: 0x8, addend: 0x0, symName: __ZNSt3__16vectorIcNS_9allocatorIcEEE16__destroy_vectorclB8ue170006Ev, symObjAddr: 0xF640, symBinAddr: 0x100011ACC, symSize: 0x90 }
  - { offsetInCU: 0x2A46F, offset: 0x2A46F, size: 0x8, addend: 0x0, symName: __ZNSt3__16vectorIcNS_9allocatorIcEEE7__clearB8ue170006Ev, symObjAddr: 0xF6D0, symBinAddr: 0x100011B5C, symSize: 0x28 }
  - { offsetInCU: 0x2A495, offset: 0x2A495, size: 0x8, addend: 0x0, symName: __ZNKSt3__16vectorIcNS_9allocatorIcEEE17__annotate_deleteB8ue170006Ev, symObjAddr: 0xF6F8, symBinAddr: 0x100011B84, symSize: 0xB8 }
  - { offsetInCU: 0x2A4BB, offset: 0x2A4BB, size: 0x8, addend: 0x0, symName: __ZNSt3__116allocator_traitsINS_9allocatorIcEEE10deallocateB8ue170006ERS2_Pcm, symObjAddr: 0xF7B0, symBinAddr: 0x100011C3C, symSize: 0x34 }
  - { offsetInCU: 0x2A4FD, offset: 0x2A4FD, size: 0x8, addend: 0x0, symName: __ZNSt3__16vectorIcNS_9allocatorIcEEE22__base_destruct_at_endB8ue170006EPc, symObjAddr: 0xF7E4, symBinAddr: 0x100011C70, symSize: 0x8C }
  - { offsetInCU: 0x2A541, offset: 0x2A541, size: 0x8, addend: 0x0, symName: __ZNSt3__116allocator_traitsINS_9allocatorIcEEE7destroyB8ue170006IcvEEvRS2_PT_, symObjAddr: 0xF870, symBinAddr: 0x100011CFC, symSize: 0x2C }
  - { offsetInCU: 0x2A57E, offset: 0x2A57E, size: 0x8, addend: 0x0, symName: __ZNSt3__19allocatorIcE7destroyB8ue170006EPc, symObjAddr: 0xF89C, symBinAddr: 0x100011D28, symSize: 0x14 }
  - { offsetInCU: 0x2A5B2, offset: 0x2A5B2, size: 0x8, addend: 0x0, symName: __ZNKSt3__16vectorIcNS_9allocatorIcEEE4sizeB8ue170006Ev, symObjAddr: 0xF8B0, symBinAddr: 0x100011D3C, symSize: 0x20 }
  - { offsetInCU: 0x2A5D8, offset: 0x2A5D8, size: 0x8, addend: 0x0, symName: __ZNSt3__19allocatorIcE10deallocateB8ue170006EPcm, symObjAddr: 0xF8D0, symBinAddr: 0x100011D5C, symSize: 0x40 }
  - { offsetInCU: 0x2A61A, offset: 0x2A61A, size: 0x8, addend: 0x0, symName: __ZNSt3__16vectorIcNS_9allocatorIcEEED2B8ue170006Ev, symObjAddr: 0xF910, symBinAddr: 0x100011D9C, symSize: 0x40 }
  - { offsetInCU: 0x2A644, offset: 0x2A644, size: 0x8, addend: 0x0, symName: __ZNK3bagI4trieIcEE12getWithLabelEc, symObjAddr: 0xF950, symBinAddr: 0x100011DDC, symSize: 0xBC }
  - { offsetInCU: 0x2A694, offset: 0x2A694, size: 0x8, addend: 0x0, symName: __ZNKSt3__16vectorIcNS_9allocatorIcEEEixB8ue170006Em, symObjAddr: 0xFA0C, symBinAddr: 0x100011E98, symSize: 0x24 }
  - { offsetInCU: 0x2A6CB, offset: 0x2A6CB, size: 0x8, addend: 0x0, symName: __ZNK3bagI4trieIcEEeqERKS2_, symObjAddr: 0xFA30, symBinAddr: 0x100011EBC, symSize: 0x21C }
  - { offsetInCU: 0x2A71A, offset: 0x2A71A, size: 0x8, addend: 0x0, symName: __Z3absB8ue170006d, symObjAddr: 0xFC4C, symBinAddr: 0x1000120D8, symSize: 0x18 }
  - { offsetInCU: 0x2A747, offset: 0x2A747, size: 0x8, addend: 0x0, symName: __ZNK3bagI4trieIcEE7getSizeEv, symObjAddr: 0xFC64, symBinAddr: 0x1000120F0, symSize: 0x24 }
  - { offsetInCU: 0x2A76D, offset: 0x2A76D, size: 0x8, addend: 0x0, symName: __ZNK3bagI4trieIcEEneERKS2_, symObjAddr: 0xFC88, symBinAddr: 0x100012114, symSize: 0x34 }
  - { offsetInCU: 0x2A7A1, offset: 0x2A7A1, size: 0x8, addend: 0x0, symName: __ZNSt3__16vectorIcNS_9allocatorIcEEE6assignIPKcLi0EEEvT_S7_, symObjAddr: 0xFCBC, symBinAddr: 0x100012148, symSize: 0x5C }
  - { offsetInCU: 0x2A7F6, offset: 0x2A7F6, size: 0x8, addend: 0x0, symName: __ZNSt3__16vectorIcNS_9allocatorIcEEE18__assign_with_sizeB8ue170006IPKcS6_EEvT_T0_l, symObjAddr: 0xFD18, symBinAddr: 0x1000121A4, symSize: 0x164 }
  - { offsetInCU: 0x2A8A6, offset: 0x2A8A6, size: 0x8, addend: 0x0, symName: __ZNSt3__16vectorIcNS_9allocatorIcEEE17__destruct_at_endB8ue170006EPc, symObjAddr: 0xFEDC, symBinAddr: 0x100012368, symSize: 0x4C }
  - { offsetInCU: 0x2A8EA, offset: 0x2A8EA, size: 0x8, addend: 0x0, symName: __ZNSt3__16vectorIcNS_9allocatorIcEEE13__vdeallocateEv, symObjAddr: 0xFF28, symBinAddr: 0x1000123B4, symSize: 0x94 }
  - { offsetInCU: 0x2A912, offset: 0x2A912, size: 0x8, addend: 0x0, symName: __ZNKSt3__16vectorIcNS_9allocatorIcEEE11__recommendB8ue170006Em, symObjAddr: 0xFFBC, symBinAddr: 0x100012448, symSize: 0xB4 }
  - { offsetInCU: 0x2A967, offset: 0x2A967, size: 0x8, addend: 0x0, symName: __ZNKSt3__16vectorIcNS_9allocatorIcEEE17__annotate_shrinkB8ue170006Em, symObjAddr: 0x100E4, symBinAddr: 0x100012570, symSize: 0xB4 }
  - { offsetInCU: 0x2A99C, offset: 0x2A99C, size: 0x8, addend: 0x0, symName: __ZNSt3__16vectorIcNS_9allocatorIcEEE5clearB8ue170006Ev, symObjAddr: 0x10198, symBinAddr: 0x100012624, symSize: 0x44 }
  - { offsetInCU: 0x2A9F2, offset: 0x2A9F2, size: 0x8, addend: 0x0, symName: __ZNKSt3__113basic_ostreamIcNS_11char_traitsIcEEE6sentrycvbB8ue170006Ev, symObjAddr: 0x103E8, symBinAddr: 0x100012874, symSize: 0x1C }
  - { offsetInCU: 0x2AA18, offset: 0x2AA18, size: 0x8, addend: 0x0, symName: __ZNSt3__119ostreambuf_iteratorIcNS_11char_traitsIcEEEC1B8ue170006ERNS_13basic_ostreamIcS2_EE, symObjAddr: 0x10644, symBinAddr: 0x100012AD0, symSize: 0x34 }
  - { offsetInCU: 0x2AA50, offset: 0x2AA50, size: 0x8, addend: 0x0, symName: __ZNKSt3__18ios_base5flagsB8ue170006Ev, symObjAddr: 0x10678, symBinAddr: 0x100012B04, symSize: 0x18 }
  - { offsetInCU: 0x2AA78, offset: 0x2AA78, size: 0x8, addend: 0x0, symName: __ZNKSt3__19basic_iosIcNS_11char_traitsIcEEE4fillB8ue170006Ev, symObjAddr: 0x10690, symBinAddr: 0x100012B1C, symSize: 0x64 }
  - { offsetInCU: 0x2AAA0, offset: 0x2AAA0, size: 0x8, addend: 0x0, symName: __ZNKSt3__119ostreambuf_iteratorIcNS_11char_traitsIcEEE6failedB8ue170006Ev, symObjAddr: 0x106F4, symBinAddr: 0x100012B80, symSize: 0x24 }
  - { offsetInCU: 0x2AAC6, offset: 0x2AAC6, size: 0x8, addend: 0x0, symName: __ZNKSt3__18ios_base5widthB8ue170006Ev, symObjAddr: 0x10718, symBinAddr: 0x100012BA4, symSize: 0x18 }
  - { offsetInCU: 0x2AAEE, offset: 0x2AAEE, size: 0x8, addend: 0x0, symName: __ZNSt3__115basic_streambufIcNS_11char_traitsIcEEE5sputnB8ue170006EPKcl, symObjAddr: 0x10730, symBinAddr: 0x100012BBC, symSize: 0x3C }
  - { offsetInCU: 0x2AB30, offset: 0x2AB30, size: 0x8, addend: 0x0, symName: __ZNSt3__112basic_stringIcNS_11char_traitsIcEENS_9allocatorIcEEEC1B8ue170006Emc, symObjAddr: 0x1076C, symBinAddr: 0x100012BF8, symSize: 0x3C }
  - { offsetInCU: 0x2AB78, offset: 0x2AB78, size: 0x8, addend: 0x0, symName: __ZNSt3__112basic_stringIcNS_11char_traitsIcEENS_9allocatorIcEEE4dataB8ue170006Ev, symObjAddr: 0x107A8, symBinAddr: 0x100012C34, symSize: 0x28 }
  - { offsetInCU: 0x2AB9E, offset: 0x2AB9E, size: 0x8, addend: 0x0, symName: __ZNSt3__18ios_base5widthB8ue170006El, symObjAddr: 0x107D0, symBinAddr: 0x100012C5C, symSize: 0x2C }
  - { offsetInCU: 0x2ABE4, offset: 0x2ABE4, size: 0x8, addend: 0x0, symName: __ZNSt3__112basic_stringIcNS_11char_traitsIcEENS_9allocatorIcEEEC2B8ue170006Emc, symObjAddr: 0x107FC, symBinAddr: 0x100012C88, symSize: 0x4C }
  - { offsetInCU: 0x2AC2C, offset: 0x2AC2C, size: 0x8, addend: 0x0, symName: __ZNSt3__112basic_stringIcNS_11char_traitsIcEENS_9allocatorIcEEE13__get_pointerB8ue170006Ev, symObjAddr: 0x10848, symBinAddr: 0x100012CD4, symSize: 0x54 }
  - { offsetInCU: 0x2AC52, offset: 0x2AC52, size: 0x8, addend: 0x0, symName: __ZNSt3__112basic_stringIcNS_11char_traitsIcEENS_9allocatorIcEEE18__get_long_pointerB8ue170006Ev, symObjAddr: 0x1089C, symBinAddr: 0x100012D28, symSize: 0x28 }
  - { offsetInCU: 0x2AC78, offset: 0x2AC78, size: 0x8, addend: 0x0, symName: __ZNSt3__112basic_stringIcNS_11char_traitsIcEENS_9allocatorIcEEE19__get_short_pointerB8ue170006Ev, symObjAddr: 0x108C4, symBinAddr: 0x100012D50, symSize: 0x28 }
  - { offsetInCU: 0x2AC9E, offset: 0x2AC9E, size: 0x8, addend: 0x0, symName: __ZNSt3__114pointer_traitsIPcE10pointer_toB8ue170006ERc, symObjAddr: 0x108EC, symBinAddr: 0x100012D78, symSize: 0x14 }
  - { offsetInCU: 0x2ACC1, offset: 0x2ACC1, size: 0x8, addend: 0x0, symName: __ZNSt3__119ostreambuf_iteratorIcNS_11char_traitsIcEEEC2B8ue170006ERNS_13basic_ostreamIcS2_EE, symObjAddr: 0x10900, symBinAddr: 0x100012D8C, symSize: 0x54 }
  - { offsetInCU: 0x2ACF9, offset: 0x2ACF9, size: 0x8, addend: 0x0, symName: __ZNKSt3__19basic_iosIcNS_11char_traitsIcEEE5widenB8ue170006Ec, symObjAddr: 0x10954, symBinAddr: 0x100012DE0, symSize: 0x84 }
  - { offsetInCU: 0x2AD58, offset: 0x2AD58, size: 0x8, addend: 0x0, symName: __ZNKSt3__15ctypeIcE5widenB8ue170006Ec, symObjAddr: 0x10A04, symBinAddr: 0x100012E90, symSize: 0x38 }
  - { offsetInCU: 0x2AD8D, offset: 0x2AD8D, size: 0x8, addend: 0x0, symName: __ZN4trieIcEC2Ev, symObjAddr: 0x10A3C, symBinAddr: 0x100012EC8, symSize: 0x40 }
  - { offsetInCU: 0x2ADB9, offset: 0x2ADB9, size: 0x8, addend: 0x0, symName: __ZN3bagI4trieIcEEC1Ev, symObjAddr: 0x10A7C, symBinAddr: 0x100012F08, symSize: 0x2C }
  - { offsetInCU: 0x2ADE3, offset: 0x2ADE3, size: 0x8, addend: 0x0, symName: __ZN3bagI4trieIcEEC2Ev, symObjAddr: 0x10AA8, symBinAddr: 0x100012F34, symSize: 0x2C }
  - { offsetInCU: 0x2AE0D, offset: 0x2AE0D, size: 0x8, addend: 0x0, symName: __ZNSt3__16vectorIP4trieIcENS_9allocatorIS3_EEEC1B8ue170006Ev, symObjAddr: 0x10AD4, symBinAddr: 0x100012F60, symSize: 0x2C }
  - { offsetInCU: 0x2AE37, offset: 0x2AE37, size: 0x8, addend: 0x0, symName: __ZNSt3__16vectorIP4trieIcENS_9allocatorIS3_EEEC2B8ue170006Ev, symObjAddr: 0x10B00, symBinAddr: 0x100012F8C, symSize: 0x4C }
  - { offsetInCU: 0x2AE61, offset: 0x2AE61, size: 0x8, addend: 0x0, symName: __ZNSt3__117__compressed_pairIPP4trieIcENS_9allocatorIS3_EEEC1B8ue170006IDnNS_18__default_init_tagEEEOT_OT0_, symObjAddr: 0x10B4C, symBinAddr: 0x100012FD8, symSize: 0x3C }
  - { offsetInCU: 0x2AEB9, offset: 0x2AEB9, size: 0x8, addend: 0x0, symName: __ZNSt3__117__compressed_pairIPP4trieIcENS_9allocatorIS3_EEEC2B8ue170006IDnNS_18__default_init_tagEEEOT_OT0_, symObjAddr: 0x10B88, symBinAddr: 0x100013014, symSize: 0x40 }
  - { offsetInCU: 0x2AF11, offset: 0x2AF11, size: 0x8, addend: 0x0, symName: __ZNSt3__122__compressed_pair_elemINS_9allocatorIP4trieIcEEELi1ELb1EEC2B8ue170006ENS_18__default_init_tagE, symObjAddr: 0x10BC8, symBinAddr: 0x100013054, symSize: 0x2C }
  - { offsetInCU: 0x2AF45, offset: 0x2AF45, size: 0x8, addend: 0x0, symName: __ZNSt3__19allocatorIP4trieIcEEC2B8ue170006Ev, symObjAddr: 0x10BF4, symBinAddr: 0x100013080, symSize: 0x2C }
  - { offsetInCU: 0x2AF6F, offset: 0x2AF6F, size: 0x8, addend: 0x0, symName: __ZNSt3__116__non_trivial_ifILb1ENS_9allocatorIP4trieIcEEEEC2B8ue170006Ev, symObjAddr: 0x10C20, symBinAddr: 0x1000130AC, symSize: 0x14 }
  - { offsetInCU: 0x2AF99, offset: 0x2AF99, size: 0x8, addend: 0x0, symName: __ZNK4trieIcE10get_parentEv, symObjAddr: 0x10C34, symBinAddr: 0x1000130C0, symSize: 0x18 }
  - { offsetInCU: 0x2AFC1, offset: 0x2AFC1, size: 0x8, addend: 0x0, symName: __ZN3bagI4trieIcEE8hasLabelEPKc, symObjAddr: 0x10C4C, symBinAddr: 0x1000130D8, symSize: 0xCC }
  - { offsetInCU: 0x2B011, offset: 0x2B011, size: 0x8, addend: 0x0, symName: __ZN3bagI4trieIcEE8addChildERKS1_, symObjAddr: 0x10D18, symBinAddr: 0x1000131A4, symSize: 0x170 }
  - { offsetInCU: 0x2B06F, offset: 0x2B06F, size: 0x8, addend: 0x0, symName: __ZNSt3__16vectorIP4trieIcENS_9allocatorIS3_EEE6insertENS_11__wrap_iterIPKS3_EERS8_, symObjAddr: 0x10E88, symBinAddr: 0x100013314, symSize: 0x1FC }
  - { offsetInCU: 0x2B106, offset: 0x2B106, size: 0x8, addend: 0x0, symName: __ZNKSt3__111__wrap_iterIPP4trieIcEEplB8ue170006El, symObjAddr: 0x11084, symBinAddr: 0x100013510, symSize: 0x3C }
  - { offsetInCU: 0x2B153, offset: 0x2B153, size: 0x8, addend: 0x0, symName: __ZNSt3__111__wrap_iterIPKP4trieIcEEC1B8ue170006IPS3_EERKNS0_IT_EEPNS_9enable_ifIXsr14is_convertibleIS9_S5_EE5valueEvE4typeE, symObjAddr: 0x110C0, symBinAddr: 0x10001354C, symSize: 0x3C }
  - { offsetInCU: 0x2B19E, offset: 0x2B19E, size: 0x8, addend: 0x0, symName: __ZNSt3__16vectorIP4trieIcENS_9allocatorIS3_EEE12__move_rangeEPS3_S7_S7_, symObjAddr: 0x11144, symBinAddr: 0x1000135D0, symSize: 0x12C }
  - { offsetInCU: 0x2B25A, offset: 0x2B25A, size: 0x8, addend: 0x0, symName: __ZNSt3__114pointer_traitsIPKP4trieIcEE10pointer_toB8ue170006ERS4_, symObjAddr: 0x11270, symBinAddr: 0x1000136FC, symSize: 0x14 }
  - { offsetInCU: 0x2B27D, offset: 0x2B27D, size: 0x8, addend: 0x0, symName: __ZNSt3__114__split_bufferIP4trieIcERNS_9allocatorIS3_EEE9push_backB8ue170006ERKS3_, symObjAddr: 0x11284, symBinAddr: 0x100013710, symSize: 0x260 }
  - { offsetInCU: 0x2B2F5, offset: 0x2B2F5, size: 0x8, addend: 0x0, symName: __ZNKSt3__111__wrap_iterIPKP4trieIcEE4baseB8ue170006Ev, symObjAddr: 0x11630, symBinAddr: 0x100013ABC, symSize: 0x18 }
  - { offsetInCU: 0x2B31B, offset: 0x2B31B, size: 0x8, addend: 0x0, symName: __ZNSt3__116allocator_traitsINS_9allocatorIP4trieIcEEEE9constructB8ue170006IS4_JS4_EvEEvRS5_PT_DpOT0_, symObjAddr: 0x11648, symBinAddr: 0x100013AD4, symSize: 0x34 }
  - { offsetInCU: 0x2B372, offset: 0x2B372, size: 0x8, addend: 0x0, symName: __ZNSt3__19allocatorIP4trieIcEE9constructB8ue170006IS3_JS3_EEEvPT_DpOT0_, symObjAddr: 0x116BC, symBinAddr: 0x100013B48, symSize: 0x28 }
  - { offsetInCU: 0x2B3EE, offset: 0x2B3EE, size: 0x8, addend: 0x0, symName: __ZNKSt3__123__move_backward_trivialclB8ue170006IP4trieIcES4_Li0EEENS_4pairIPT_PT0_EES7_S7_S9_, symObjAddr: 0x11880, symBinAddr: 0x100013D0C, symSize: 0x48 }
  - { offsetInCU: 0x2B456, offset: 0x2B456, size: 0x8, addend: 0x0, symName: __ZNSt3__14pairIPP4trieIcES4_EC1B8ue170006IRS4_S7_LPv0EEEOT_OT0_, symObjAddr: 0x11AB8, symBinAddr: 0x100013F44, symSize: 0x3C }
  - { offsetInCU: 0x2B4B4, offset: 0x2B4B4, size: 0x8, addend: 0x0, symName: __ZNSt3__14pairIPP4trieIcES4_EC2B8ue170006IRS4_S7_LPv0EEEOT_OT0_, symObjAddr: 0x11AF4, symBinAddr: 0x100013F80, symSize: 0x34 }
  - { offsetInCU: 0x2B512, offset: 0x2B512, size: 0x8, addend: 0x0, symName: __ZNSt3__118__unwrap_iter_implIPP4trieIcELb1EE8__unwrapB8ue170006ES4_, symObjAddr: 0x11B28, symBinAddr: 0x100013FB4, symSize: 0x24 }
  - { offsetInCU: 0x2B53B, offset: 0x2B53B, size: 0x8, addend: 0x0, symName: __ZNSt3__14pairIPP4trieIcES4_EC1B8ue170006IS4_S4_LPv0EEEOT_OT0_, symObjAddr: 0x11B4C, symBinAddr: 0x100013FD8, symSize: 0x3C }
  - { offsetInCU: 0x2B599, offset: 0x2B599, size: 0x8, addend: 0x0, symName: __ZNSt3__14pairIPP4trieIcES4_EC2B8ue170006IS4_S4_LPv0EEEOT_OT0_, symObjAddr: 0x11B88, symBinAddr: 0x100014014, symSize: 0x34 }
  - { offsetInCU: 0x2B5F7, offset: 0x2B5F7, size: 0x8, addend: 0x0, symName: __ZNSt3__118__unwrap_iter_implIPP4trieIcELb1EE8__rewrapB8ue170006ES4_S4_, symObjAddr: 0x11BBC, symBinAddr: 0x100014048, symSize: 0x50 }
  - { offsetInCU: 0x2B628, offset: 0x2B628, size: 0x8, addend: 0x0, symName: __ZNSt3__114__split_bufferIP4trieIcERNS_9allocatorIS3_EEE18__construct_at_endINS_13move_iteratorIPS3_EEEENS_9enable_ifIXsr31__has_forward_iterator_categoryIT_EE5valueEvE4typeESD_SD_, symObjAddr: 0x11C4C, symBinAddr: 0x1000140D8, symSize: 0x60 }
  - { offsetInCU: 0x2B675, offset: 0x2B675, size: 0x8, addend: 0x0, symName: __ZNSt3__113move_iteratorIPP4trieIcEEC1B8ue170006ES4_, symObjAddr: 0x11CAC, symBinAddr: 0x100014138, symSize: 0x34 }
  - { offsetInCU: 0x2B6B7, offset: 0x2B6B7, size: 0x8, addend: 0x0, symName: __ZNKSt3__114__move_trivialclB8ue170006IP4trieIcES4_Li0EEENS_4pairIPT_PT0_EES7_S7_S9_, symObjAddr: 0x11E1C, symBinAddr: 0x1000142A8, symSize: 0x48 }
  - { offsetInCU: 0x2B71F, offset: 0x2B71F, size: 0x8, addend: 0x0, symName: __ZNSt3__14pairIPP4trieIcES4_EC1B8ue170006IRS4_S4_LPv0EEEOT_OT0_, symObjAddr: 0x11F1C, symBinAddr: 0x1000143A8, symSize: 0x3C }
  - { offsetInCU: 0x2B77D, offset: 0x2B77D, size: 0x8, addend: 0x0, symName: __ZNSt3__14pairIPP4trieIcES4_EC2B8ue170006IRS4_S4_LPv0EEEOT_OT0_, symObjAddr: 0x11F58, symBinAddr: 0x1000143E4, symSize: 0x34 }
  - { offsetInCU: 0x2B7DB, offset: 0x2B7DB, size: 0x8, addend: 0x0, symName: __ZNSt3__114__split_bufferIP4trieIcERNS_9allocatorIS3_EEE28__construct_at_end_with_sizeINS_13move_iteratorIPS3_EEEEvT_m, symObjAddr: 0x11F8C, symBinAddr: 0x100014418, symSize: 0xDC }
  - { offsetInCU: 0x2B841, offset: 0x2B841, size: 0x8, addend: 0x0, symName: __ZNSt3__114__split_bufferIP4trieIcERNS_9allocatorIS3_EEE21_ConstructTransactionC1B8ue170006EPPS3_m, symObjAddr: 0x120A4, symBinAddr: 0x100014530, symSize: 0x3C }
  - { offsetInCU: 0x2B887, offset: 0x2B887, size: 0x8, addend: 0x0, symName: __ZNKSt3__113move_iteratorIPP4trieIcEEdeB8ue170006Ev, symObjAddr: 0x120E0, symBinAddr: 0x10001456C, symSize: 0x18 }
  - { offsetInCU: 0x2B8AD, offset: 0x2B8AD, size: 0x8, addend: 0x0, symName: __ZNSt3__113move_iteratorIPP4trieIcEEppB8ue170006Ev, symObjAddr: 0x120F8, symBinAddr: 0x100014584, symSize: 0x20 }
  - { offsetInCU: 0x2B8D3, offset: 0x2B8D3, size: 0x8, addend: 0x0, symName: __ZNSt3__114__split_bufferIP4trieIcERNS_9allocatorIS3_EEE21_ConstructTransactionD1B8ue170006Ev, symObjAddr: 0x12118, symBinAddr: 0x1000145A4, symSize: 0x2C }
  - { offsetInCU: 0x2B8FD, offset: 0x2B8FD, size: 0x8, addend: 0x0, symName: __ZNSt3__114__split_bufferIP4trieIcERNS_9allocatorIS3_EEE21_ConstructTransactionC2B8ue170006EPPS3_m, symObjAddr: 0x12144, symBinAddr: 0x1000145D0, symSize: 0x44 }
  - { offsetInCU: 0x2B943, offset: 0x2B943, size: 0x8, addend: 0x0, symName: __ZNSt3__114__split_bufferIP4trieIcERNS_9allocatorIS3_EEE21_ConstructTransactionD2B8ue170006Ev, symObjAddr: 0x12188, symBinAddr: 0x100014614, symSize: 0x20 }
  - { offsetInCU: 0x2B96D, offset: 0x2B96D, size: 0x8, addend: 0x0, symName: __ZNKSt3__113move_iteratorIPP4trieIcEE4baseB8ue170006Ev, symObjAddr: 0x12220, symBinAddr: 0x1000146AC, symSize: 0x18 }
  - { offsetInCU: 0x2B993, offset: 0x2B993, size: 0x8, addend: 0x0, symName: __ZNSt3__113move_iteratorIPP4trieIcEEC2B8ue170006ES4_, symObjAddr: 0x12238, symBinAddr: 0x1000146C4, symSize: 0x20 }
  - { offsetInCU: 0x2B9CB, offset: 0x2B9CB, size: 0x8, addend: 0x0, symName: __ZNSt3__111__wrap_iterIPP4trieIcEEpLB8ue170006El, symObjAddr: 0x12290, symBinAddr: 0x10001471C, symSize: 0x28 }
  - { offsetInCU: 0x2B9FF, offset: 0x2B9FF, size: 0x8, addend: 0x0, symName: __ZNSt3__111__wrap_iterIPKP4trieIcEEC2B8ue170006IPS3_EERKNS0_IT_EEPNS_9enable_ifIXsr14is_convertibleIS9_S5_EE5valueEvE4typeE, symObjAddr: 0x122B8, symBinAddr: 0x100014744, symSize: 0x40 }
  - { offsetInCU: 0x2BA4A, offset: 0x2BA4A, size: 0x8, addend: 0x0, symName: __ZN4trieIcEC2Ed, symObjAddr: 0x122F8, symBinAddr: 0x100014784, symSize: 0x44 }
  - { offsetInCU: 0x2BA84, offset: 0x2BA84, size: 0x8, addend: 0x0, symName: __ZN4trieIcE13leaf_iteratorC2EPS0_, symObjAddr: 0x1233C, symBinAddr: 0x1000147C8, symSize: 0x3C }
  - { offsetInCU: 0x2BABE, offset: 0x2BABE, size: 0x8, addend: 0x0, symName: __Z8findLeafIcEP4trieIT_ES3_, symObjAddr: 0x12378, symBinAddr: 0x100014804, symSize: 0x80 }
  - { offsetInCU: 0x2BAF5, offset: 0x2BAF5, size: 0x8, addend: 0x0, symName: __Z12findNextLeafIcEP4trieIT_ES3_, symObjAddr: 0x123F8, symBinAddr: 0x100014884, symSize: 0xC8 }
  - { offsetInCU: 0x2BB3C, offset: 0x2BB3C, size: 0x8, addend: 0x0, symName: __ZN4trieIcE10get_parentEv, symObjAddr: 0x124C0, symBinAddr: 0x10001494C, symSize: 0x18 }
  - { offsetInCU: 0x2BB64, offset: 0x2BB64, size: 0x8, addend: 0x0, symName: __ZNK3bagI4trieIcEE9findIndexEPKS1_, symObjAddr: 0x124D8, symBinAddr: 0x100014964, symSize: 0xA8 }
  - { offsetInCU: 0x2BBB4, offset: 0x2BBB4, size: 0x8, addend: 0x0, symName: __ZN4trieIcE19const_leaf_iteratorC1EPKS0_, symObjAddr: 0x12580, symBinAddr: 0x100014A0C, symSize: 0x34 }
  - { offsetInCU: 0x2BBEF, offset: 0x2BBEF, size: 0x8, addend: 0x0, symName: __ZN4trieIcE19const_leaf_iteratorC2EPKS0_, symObjAddr: 0x125B4, symBinAddr: 0x100014A40, symSize: 0x3C }
  - { offsetInCU: 0x2BC29, offset: 0x2BC29, size: 0x8, addend: 0x0, symName: __Z8findLeafIcEPK4trieIT_ES4_, symObjAddr: 0x125F0, symBinAddr: 0x100014A7C, symSize: 0x80 }
  - { offsetInCU: 0x2BC60, offset: 0x2BC60, size: 0x8, addend: 0x0, symName: __Z12findNextLeafIcEPK4trieIT_ES4_, symObjAddr: 0x12670, symBinAddr: 0x100014AFC, symSize: 0xC8 }
  - { offsetInCU: 0x2BCA7, offset: 0x2BCA7, size: 0x8, addend: 0x0, symName: __ZN4trieIcE13node_iteratorC2EPS0_, symObjAddr: 0x12738, symBinAddr: 0x100014BC4, symSize: 0x20 }
  - { offsetInCU: 0x2BCE2, offset: 0x2BCE2, size: 0x8, addend: 0x0, symName: __ZN4trieIcE19const_node_iteratorC2EPKS0_, symObjAddr: 0x12758, symBinAddr: 0x100014BE4, symSize: 0x20 }
  - { offsetInCU: 0x2BD1D, offset: 0x2BD1D, size: 0x8, addend: 0x0, symName: __ZNSt3__16vectorIP4trieIcENS_9allocatorIS3_EEEC1ERKS6_, symObjAddr: 0x12778, symBinAddr: 0x100014C04, symSize: 0x34 }
  - { offsetInCU: 0x2BD58, offset: 0x2BD58, size: 0x8, addend: 0x0, symName: __ZN3bagI4trieIcEE17children_iteratorC1EPS1_NSt3__16vectorIS4_NS5_9allocatorIS4_EEEE, symObjAddr: 0x127AC, symBinAddr: 0x100014C38, symSize: 0x3C }
  - { offsetInCU: 0x2BD9F, offset: 0x2BD9F, size: 0x8, addend: 0x0, symName: __ZNSt3__16vectorIP4trieIcENS_9allocatorIS3_EEEC2ERKS6_, symObjAddr: 0x127E8, symBinAddr: 0x100014C74, symSize: 0x94 }
  - { offsetInCU: 0x2BDDA, offset: 0x2BDDA, size: 0x8, addend: 0x0, symName: __ZNSt3__116allocator_traitsINS_9allocatorIP4trieIcEEEE37select_on_container_copy_constructionB8ue170006IS5_vvEES5_RKS5_, symObjAddr: 0x1287C, symBinAddr: 0x100014D08, symSize: 0x10 }
  - { offsetInCU: 0x2BE0F, offset: 0x2BE0F, size: 0x8, addend: 0x0, symName: __ZNSt3__117__compressed_pairIPP4trieIcENS_9allocatorIS3_EEEC1B8ue170006IDnS6_EEOT_OT0_, symObjAddr: 0x1288C, symBinAddr: 0x100014D18, symSize: 0x3C }
  - { offsetInCU: 0x2BE67, offset: 0x2BE67, size: 0x8, addend: 0x0, symName: __ZNSt3__16vectorIP4trieIcENS_9allocatorIS3_EEE16__init_with_sizeB8ue170006IPS3_S8_EEvT_T0_m, symObjAddr: 0x128C8, symBinAddr: 0x100014D54, symSize: 0xB8 }
  - { offsetInCU: 0x2BEDB, offset: 0x2BEDB, size: 0x8, addend: 0x0, symName: __ZNSt3__117__compressed_pairIPP4trieIcENS_9allocatorIS3_EEEC2B8ue170006IDnS6_EEOT_OT0_, symObjAddr: 0x12980, symBinAddr: 0x100014E0C, symSize: 0x44 }
  - { offsetInCU: 0x2BF33, offset: 0x2BF33, size: 0x8, addend: 0x0, symName: __ZNSt3__122__compressed_pair_elemINS_9allocatorIP4trieIcEEELi1ELb1EEC2B8ue170006IS5_vEEOT_, symObjAddr: 0x129C4, symBinAddr: 0x100014E50, symSize: 0x18 }
  - { offsetInCU: 0x2BF75, offset: 0x2BF75, size: 0x8, addend: 0x0, symName: __ZNSt3__16vectorIP4trieIcENS_9allocatorIS3_EEE11__vallocateB8ue170006Em, symObjAddr: 0x12A1C, symBinAddr: 0x100014EA8, symSize: 0xAC }
  - { offsetInCU: 0x2BFB9, offset: 0x2BFB9, size: 0x8, addend: 0x0, symName: __ZNSt3__16vectorIP4trieIcENS_9allocatorIS3_EEE18__construct_at_endIPS3_S8_EEvT_T0_m, symObjAddr: 0x12AC8, symBinAddr: 0x100014F54, symSize: 0x8C }
  - { offsetInCU: 0x2C02F, offset: 0x2C02F, size: 0x8, addend: 0x0, symName: __ZNSt3__128__exception_guard_exceptionsINS_6vectorIP4trieIcENS_9allocatorIS4_EEE16__destroy_vectorEE10__completeB8ue170006Ev, symObjAddr: 0x12B54, symBinAddr: 0x100014FE0, symSize: 0x1C }
  - { offsetInCU: 0x2C055, offset: 0x2C055, size: 0x8, addend: 0x0, symName: __ZNSt3__128__exception_guard_exceptionsINS_6vectorIP4trieIcENS_9allocatorIS4_EEE16__destroy_vectorEED1B8ue170006Ev, symObjAddr: 0x12B70, symBinAddr: 0x100014FFC, symSize: 0x2C }
  - { offsetInCU: 0x2C07F, offset: 0x2C07F, size: 0x8, addend: 0x0, symName: __ZNSt3__128__exception_guard_exceptionsINS_6vectorIP4trieIcENS_9allocatorIS4_EEE16__destroy_vectorEEC1B8ue170006ES8_, symObjAddr: 0x12B9C, symBinAddr: 0x100015028, symSize: 0x34 }
  - { offsetInCU: 0x2C0B7, offset: 0x2C0B7, size: 0x8, addend: 0x0, symName: __ZNSt3__128__exception_guard_exceptionsINS_6vectorIP4trieIcENS_9allocatorIS4_EEE16__destroy_vectorEEC2B8ue170006ES8_, symObjAddr: 0x12BD0, symBinAddr: 0x10001505C, symSize: 0x24 }
  - { offsetInCU: 0x2C0EF, offset: 0x2C0EF, size: 0x8, addend: 0x0, symName: __ZNKSt3__114__copy_trivialclB8ue170006IP4trieIcES4_Li0EEENS_4pairIPT_PT0_EES7_S7_S9_, symObjAddr: 0x12E28, symBinAddr: 0x1000152B4, symSize: 0x48 }
  - { offsetInCU: 0x2C157, offset: 0x2C157, size: 0x8, addend: 0x0, symName: __ZNSt3__128__exception_guard_exceptionsINS_6vectorIP4trieIcENS_9allocatorIS4_EEE16__destroy_vectorEED2B8ue170006Ev, symObjAddr: 0x12E70, symBinAddr: 0x1000152FC, symSize: 0x48 }
  - { offsetInCU: 0x2C181, offset: 0x2C181, size: 0x8, addend: 0x0, symName: __ZN3bagI4trieIcEE17children_iteratorC2EPS1_NSt3__16vectorIS4_NS5_9allocatorIS4_EEEE, symObjAddr: 0x12EB8, symBinAddr: 0x100015344, symSize: 0x80 }
  - { offsetInCU: 0x2C1C8, offset: 0x2C1C8, size: 0x8, addend: 0x0, symName: __ZNSt3__16vectorIP4trieIcENS_9allocatorIS3_EEEaSB8ue170006ERKS6_, symObjAddr: 0x12F38, symBinAddr: 0x1000153C4, symSize: 0x68 }
  - { offsetInCU: 0x2C1FF, offset: 0x2C1FF, size: 0x8, addend: 0x0, symName: __ZNSt3__16vectorIP4trieIcENS_9allocatorIS3_EEE19__copy_assign_allocB8ue170006ERKS6_, symObjAddr: 0x12FA0, symBinAddr: 0x10001542C, symSize: 0x2C }
  - { offsetInCU: 0x2C234, offset: 0x2C234, size: 0x8, addend: 0x0, symName: __ZNSt3__16vectorIP4trieIcENS_9allocatorIS3_EEE6assignIPS3_Li0EEEvT_S9_, symObjAddr: 0x12FCC, symBinAddr: 0x100015458, symSize: 0x5C }
  - { offsetInCU: 0x2C289, offset: 0x2C289, size: 0x8, addend: 0x0, symName: __ZNSt3__16vectorIP4trieIcENS_9allocatorIS3_EEE19__copy_assign_allocB8ue170006ERKS6_NS_17integral_constantIbLb0EEE, symObjAddr: 0x13028, symBinAddr: 0x1000154B4, symSize: 0x14 }
  - { offsetInCU: 0x2C2C5, offset: 0x2C2C5, size: 0x8, addend: 0x0, symName: __ZNSt3__16vectorIP4trieIcENS_9allocatorIS3_EEE18__assign_with_sizeB8ue170006IPS3_S8_EEvT_T0_l, symObjAddr: 0x1303C, symBinAddr: 0x1000154C8, symSize: 0x164 }
  - { offsetInCU: 0x2C375, offset: 0x2C375, size: 0x8, addend: 0x0, symName: __ZNSt3__16vectorIP4trieIcENS_9allocatorIS3_EEE17__destruct_at_endB8ue170006EPS3_, symObjAddr: 0x13200, symBinAddr: 0x10001568C, symSize: 0x4C }
  - { offsetInCU: 0x2C3B9, offset: 0x2C3B9, size: 0x8, addend: 0x0, symName: __ZN3bagI4trieIcEE17children_iteratorC1ERKS3_, symObjAddr: 0x132D4, symBinAddr: 0x100015760, symSize: 0x34 }
  - { offsetInCU: 0x2C3EE, offset: 0x2C3EE, size: 0x8, addend: 0x0, symName: __ZN3bagI4trieIcEE17children_iteratorC2ERKS3_, symObjAddr: 0x13308, symBinAddr: 0x100015794, symSize: 0x48 }
  - { offsetInCU: 0x2C423, offset: 0x2C423, size: 0x8, addend: 0x0, symName: __ZN3bagI4trieIcEE23const_children_iteratorC1EPS1_NSt3__16vectorIS4_NS5_9allocatorIS4_EEEE, symObjAddr: 0x13350, symBinAddr: 0x1000157DC, symSize: 0x3C }
  - { offsetInCU: 0x2C46A, offset: 0x2C46A, size: 0x8, addend: 0x0, symName: __ZN3bagI4trieIcEE23const_children_iteratorC2EPS1_NSt3__16vectorIS4_NS5_9allocatorIS4_EEEE, symObjAddr: 0x1338C, symBinAddr: 0x100015818, symSize: 0x80 }
  - { offsetInCU: 0x2C4B1, offset: 0x2C4B1, size: 0x8, addend: 0x0, symName: __ZN3bagI4trieIcEE23const_children_iteratorC1ERKS3_, symObjAddr: 0x1340C, symBinAddr: 0x100015898, symSize: 0x34 }
  - { offsetInCU: 0x2C4E6, offset: 0x2C4E6, size: 0x8, addend: 0x0, symName: __ZN3bagI4trieIcEE23const_children_iteratorC2ERKS3_, symObjAddr: 0x13440, symBinAddr: 0x1000158CC, symSize: 0x48 }
  - { offsetInCU: 0x2C51B, offset: 0x2C51B, size: 0x8, addend: 0x0, symName: __ZNK4trieIcE13leaf_iteratorneERKS1_, symObjAddr: 0x13488, symBinAddr: 0x100015914, symSize: 0x34 }
  - { offsetInCU: 0x2C552, offset: 0x2C552, size: 0x8, addend: 0x0, symName: __ZN4trieIcEC2ERKS0_, symObjAddr: 0x134BC, symBinAddr: 0x100015948, symSize: 0x100 }
  - { offsetInCU: 0x2C5A0, offset: 0x2C5A0, size: 0x8, addend: 0x0, symName: __ZN4trieINSt3__112basic_stringIcNS0_11char_traitsIcEENS0_9allocatorIcEEEEEC1Ev, symObjAddr: 0x135BC, symBinAddr: 0x100015A48, symSize: 0x2C }
  - { offsetInCU: 0x2C5CB, offset: 0x2C5CB, size: 0x8, addend: 0x0, symName: __ZrsINSt3__112basic_stringIcNS0_11char_traitsIcEENS0_9allocatorIcEEEEERNS0_13basic_istreamIcS3_EES9_R4trieIT_E, symObjAddr: 0x135E8, symBinAddr: 0x100015A74, symSize: 0x80 }
  - { offsetInCU: 0x2C621, offset: 0x2C621, size: 0x8, addend: 0x0, symName: __ZN4trieINSt3__112basic_stringIcNS0_11char_traitsIcEENS0_9allocatorIcEEEEEC2Ev, symObjAddr: 0x13668, symBinAddr: 0x100015AF4, symSize: 0x40 }
  - { offsetInCU: 0x2C64D, offset: 0x2C64D, size: 0x8, addend: 0x0, symName: __ZN3bagI4trieINSt3__112basic_stringIcNS1_11char_traitsIcEENS1_9allocatorIcEEEEEEC1Ev, symObjAddr: 0x136A8, symBinAddr: 0x100015B34, symSize: 0x2C }
  - { offsetInCU: 0x2C677, offset: 0x2C677, size: 0x8, addend: 0x0, symName: __ZN3bagI4trieINSt3__112basic_stringIcNS1_11char_traitsIcEENS1_9allocatorIcEEEEEEC2Ev, symObjAddr: 0x136D4, symBinAddr: 0x100015B60, symSize: 0x2C }
  - { offsetInCU: 0x2C6A1, offset: 0x2C6A1, size: 0x8, addend: 0x0, symName: __ZNSt3__16vectorIP4trieINS_12basic_stringIcNS_11char_traitsIcEENS_9allocatorIcEEEEENS5_IS9_EEEC1B8ue170006Ev, symObjAddr: 0x13700, symBinAddr: 0x100015B8C, symSize: 0x2C }
  - { offsetInCU: 0x2C6CB, offset: 0x2C6CB, size: 0x8, addend: 0x0, symName: __ZNSt3__16vectorIP4trieINS_12basic_stringIcNS_11char_traitsIcEENS_9allocatorIcEEEEENS5_IS9_EEEC2B8ue170006Ev, symObjAddr: 0x1372C, symBinAddr: 0x100015BB8, symSize: 0x4C }
  - { offsetInCU: 0x2C6F5, offset: 0x2C6F5, size: 0x8, addend: 0x0, symName: __ZNSt3__117__compressed_pairIPP4trieINS_12basic_stringIcNS_11char_traitsIcEENS_9allocatorIcEEEEENS5_IS9_EEEC1B8ue170006IDnNS_18__default_init_tagEEEOT_OT0_, symObjAddr: 0x13778, symBinAddr: 0x100015C04, symSize: 0x3C }
  - { offsetInCU: 0x2C74D, offset: 0x2C74D, size: 0x8, addend: 0x0, symName: __ZNSt3__117__compressed_pairIPP4trieINS_12basic_stringIcNS_11char_traitsIcEENS_9allocatorIcEEEEENS5_IS9_EEEC2B8ue170006IDnNS_18__default_init_tagEEEOT_OT0_, symObjAddr: 0x137B4, symBinAddr: 0x100015C40, symSize: 0x40 }
  - { offsetInCU: 0x2C7A5, offset: 0x2C7A5, size: 0x8, addend: 0x0, symName: __ZNSt3__122__compressed_pair_elemIPP4trieINS_12basic_stringIcNS_11char_traitsIcEENS_9allocatorIcEEEEELi0ELb0EEC2B8ue170006IDnvEEOT_, symObjAddr: 0x137F4, symBinAddr: 0x100015C80, symSize: 0x1C }
  - { offsetInCU: 0x2C7E7, offset: 0x2C7E7, size: 0x8, addend: 0x0, symName: __ZNSt3__122__compressed_pair_elemINS_9allocatorIP4trieINS_12basic_stringIcNS_11char_traitsIcEENS1_IcEEEEEEELi1ELb1EEC2B8ue170006ENS_18__default_init_tagE, symObjAddr: 0x13810, symBinAddr: 0x100015C9C, symSize: 0x2C }
  - { offsetInCU: 0x2C81B, offset: 0x2C81B, size: 0x8, addend: 0x0, symName: __ZNSt3__19allocatorIP4trieINS_12basic_stringIcNS_11char_traitsIcEENS0_IcEEEEEEC2B8ue170006Ev, symObjAddr: 0x1383C, symBinAddr: 0x100015CC8, symSize: 0x2C }
  - { offsetInCU: 0x2C845, offset: 0x2C845, size: 0x8, addend: 0x0, symName: __ZNSt3__116__non_trivial_ifILb1ENS_9allocatorIP4trieINS_12basic_stringIcNS_11char_traitsIcEENS1_IcEEEEEEEEC2B8ue170006Ev, symObjAddr: 0x13868, symBinAddr: 0x100015CF4, symSize: 0x14 }
  - { offsetInCU: 0x2C86E, offset: 0x2C86E, size: 0x8, addend: 0x0, symName: __Z1SINSt3__112basic_stringIcNS0_11char_traitsIcEENS0_9allocatorIcEEEEEvRNS0_13basic_istreamIcS3_EER4trieIT_E, symObjAddr: 0x1387C, symBinAddr: 0x100015D08, symSize: 0x1C0 }
  - { offsetInCU: 0x2C8EA, offset: 0x2C8EA, size: 0x8, addend: 0x0, symName: __ZN4trieINSt3__112basic_stringIcNS0_11char_traitsIcEENS0_9allocatorIcEEEEEaSERKS7_, symObjAddr: 0x13A3C, symBinAddr: 0x100015EC8, symSize: 0x54 }
  - { offsetInCU: 0x2C91F, offset: 0x2C91F, size: 0x8, addend: 0x0, symName: __Z1FINSt3__112basic_stringIcNS0_11char_traitsIcEENS0_9allocatorIcEEEEEvRNS0_13basic_istreamIcS3_EER4trieIT_E, symObjAddr: 0x13A90, symBinAddr: 0x100015F1C, symSize: 0x2DC }
  - { offsetInCU: 0x2C96E, offset: 0x2C96E, size: 0x8, addend: 0x0, symName: __ZN4trieINSt3__112basic_stringIcNS0_11char_traitsIcEENS0_9allocatorIcEEEEE10set_weightEd, symObjAddr: 0x13D6C, symBinAddr: 0x1000161F8, symSize: 0x20 }
  - { offsetInCU: 0x2C9A3, offset: 0x2C9A3, size: 0x8, addend: 0x0, symName: __Z1HINSt3__112basic_stringIcNS0_11char_traitsIcEENS0_9allocatorIcEEEEEvRNS0_13basic_istreamIcS3_EER4trieIT_E, symObjAddr: 0x13D8C, symBinAddr: 0x100016218, symSize: 0x3C4 }
  - { offsetInCU: 0x2C9F1, offset: 0x2C9F1, size: 0x8, addend: 0x0, symName: __Z1RINSt3__112basic_stringIcNS0_11char_traitsIcEENS0_9allocatorIcEEEEEvRNS0_13basic_istreamIcS3_EER4trieIT_E, symObjAddr: 0x14150, symBinAddr: 0x1000165DC, symSize: 0x218 }
  - { offsetInCU: 0x2CA5B, offset: 0x2CA5B, size: 0x8, addend: 0x0, symName: __ZN4trieINSt3__112basic_stringIcNS0_11char_traitsIcEENS0_9allocatorIcEEEEE10set_parentEPS7_, symObjAddr: 0x14670, symBinAddr: 0x100016AFC, symSize: 0x20 }
  - { offsetInCU: 0x2CA91, offset: 0x2CA91, size: 0x8, addend: 0x0, symName: __ZN4trieINSt3__112basic_stringIcNS0_11char_traitsIcEENS0_9allocatorIcEEEEE9set_labelEPS6_, symObjAddr: 0x14690, symBinAddr: 0x100016B1C, symSize: 0xE0 }
  - { offsetInCU: 0x2CAD5, offset: 0x2CAD5, size: 0x8, addend: 0x0, symName: __ZN4trieINSt3__112basic_stringIcNS0_11char_traitsIcEENS0_9allocatorIcEEEEE9add_childERKS7_, symObjAddr: 0x14770, symBinAddr: 0x100016BFC, symSize: 0x2B4 }
  - { offsetInCU: 0x2CB0B, offset: 0x2CB0B, size: 0x8, addend: 0x0, symName: __ZNSt3__112basic_stringIcNS_11char_traitsIcEENS_9allocatorIcEEE5clearB8ue170006Ev, symObjAddr: 0x14A24, symBinAddr: 0x100016EB0, symSize: 0x78 }
  - { offsetInCU: 0x2CB33, offset: 0x2CB33, size: 0x8, addend: 0x0, symName: __ZNKSt3__112basic_stringIcNS_11char_traitsIcEENS_9allocatorIcEEE8max_sizeB8ue170006Ev, symObjAddr: 0x14A9C, symBinAddr: 0x100016F28, symSize: 0xAC }
  - { offsetInCU: 0x2CB85, offset: 0x2CB85, size: 0x8, addend: 0x0, symName: __ZNSt3__115basic_streambufIcNS_11char_traitsIcEEE5sgetcB8ue170006Ev, symObjAddr: 0x14B48, symBinAddr: 0x100016FD4, symSize: 0x70 }
  - { offsetInCU: 0x2CBAB, offset: 0x2CBAB, size: 0x8, addend: 0x0, symName: __ZNKSt3__15ctypeIcE2isB8ue170006Ejc, symObjAddr: 0x14BB8, symBinAddr: 0x100017044, symSize: 0x7C }
  - { offsetInCU: 0x2CBEF, offset: 0x2CBEF, size: 0x8, addend: 0x0, symName: __ZNSt3__111char_traitsIcE6assignB8ue170006ERcRKc, symObjAddr: 0x14C34, symBinAddr: 0x1000170C0, symSize: 0x24 }
  - { offsetInCU: 0x2CC20, offset: 0x2CC20, size: 0x8, addend: 0x0, symName: __ZNSt3__112basic_stringIcNS_11char_traitsIcEENS_9allocatorIcEEE15__set_long_sizeB8ue170006Em, symObjAddr: 0x14C58, symBinAddr: 0x1000170E4, symSize: 0x38 }
  - { offsetInCU: 0x2CC55, offset: 0x2CC55, size: 0x8, addend: 0x0, symName: __ZNSt3__112basic_stringIcNS_11char_traitsIcEENS_9allocatorIcEEE16__set_short_sizeB8ue170006Em, symObjAddr: 0x14C90, symBinAddr: 0x10001711C, symSize: 0x78 }
  - { offsetInCU: 0x2CC8A, offset: 0x2CC8A, size: 0x8, addend: 0x0, symName: __ZNKSt3__112basic_stringIcNS_11char_traitsIcEENS_9allocatorIcEEE7__allocB8ue170006Ev, symObjAddr: 0x14D08, symBinAddr: 0x100017194, symSize: 0x24 }
  - { offsetInCU: 0x2CCB0, offset: 0x2CCB0, size: 0x8, addend: 0x0, symName: __ZNSt3__114numeric_limitsImE3maxB8ue170006Ev, symObjAddr: 0x14D2C, symBinAddr: 0x1000171B8, symSize: 0x14 }
  - { offsetInCU: 0x2CCC4, offset: 0x2CCC4, size: 0x8, addend: 0x0, symName: __ZNKSt3__117__compressed_pairINS_12basic_stringIcNS_11char_traitsIcEENS_9allocatorIcEEE5__repES5_E6secondB8ue170006Ev, symObjAddr: 0x14D40, symBinAddr: 0x1000171CC, symSize: 0x24 }
  - { offsetInCU: 0x2CCEA, offset: 0x2CCEA, size: 0x8, addend: 0x0, symName: __ZNSt3__123__libcpp_numeric_limitsImLb1EE3maxB8ue170006Ev, symObjAddr: 0x14D64, symBinAddr: 0x1000171F0, symSize: 0x8 }
  - { offsetInCU: 0x2CCFD, offset: 0x2CCFD, size: 0x8, addend: 0x0, symName: __Z7isasciii, symObjAddr: 0x14D6C, symBinAddr: 0x1000171F8, symSize: 0x24 }
  - { offsetInCU: 0x2CD2A, offset: 0x2CD2A, size: 0x8, addend: 0x0, symName: __ZNK4trieINSt3__112basic_stringIcNS0_11char_traitsIcEENS0_9allocatorIcEEEEE9get_labelEv, symObjAddr: 0x14D90, symBinAddr: 0x10001721C, symSize: 0x18 }
  - { offsetInCU: 0x2CD52, offset: 0x2CD52, size: 0x8, addend: 0x0, symName: __ZNK4trieINSt3__112basic_stringIcNS0_11char_traitsIcEENS0_9allocatorIcEEEEE10get_parentEv, symObjAddr: 0x14DA8, symBinAddr: 0x100017234, symSize: 0x18 }
  - { offsetInCU: 0x2CD7A, offset: 0x2CD7A, size: 0x8, addend: 0x0, symName: __ZN3bagI4trieINSt3__112basic_stringIcNS1_11char_traitsIcEENS1_9allocatorIcEEEEEE8hasLabelEPKS7_, symObjAddr: 0x14DC0, symBinAddr: 0x10001724C, symSize: 0xC0 }
  - { offsetInCU: 0x2CDCA, offset: 0x2CDCA, size: 0x8, addend: 0x0, symName: __ZN3bagI4trieINSt3__112basic_stringIcNS1_11char_traitsIcEENS1_9allocatorIcEEEEEE8addChildERKS8_, symObjAddr: 0x14E80, symBinAddr: 0x10001730C, symSize: 0x168 }
  - { offsetInCU: 0x2CE28, offset: 0x2CE28, size: 0x8, addend: 0x0, symName: __ZNKSt3__16vectorIP4trieINS_12basic_stringIcNS_11char_traitsIcEENS_9allocatorIcEEEEENS5_IS9_EEE4sizeB8ue170006Ev, symObjAddr: 0x14FE8, symBinAddr: 0x100017474, symSize: 0x28 }
  - { offsetInCU: 0x2CE4E, offset: 0x2CE4E, size: 0x8, addend: 0x0, symName: __ZNSt3__16vectorIP4trieINS_12basic_stringIcNS_11char_traitsIcEENS_9allocatorIcEEEEENS5_IS9_EEEixB8ue170006Em, symObjAddr: 0x15158, symBinAddr: 0x1000175E4, symSize: 0x24 }
  - { offsetInCU: 0x2CE85, offset: 0x2CE85, size: 0x8, addend: 0x0, symName: __ZN4trieINSt3__112basic_stringIcNS0_11char_traitsIcEENS0_9allocatorIcEEEEE9get_labelEv, symObjAddr: 0x1517C, symBinAddr: 0x100017608, symSize: 0x18 }
  - { offsetInCU: 0x2CEAD, offset: 0x2CEAD, size: 0x8, addend: 0x0, symName: __ZN4trieINSt3__112basic_stringIcNS0_11char_traitsIcEENS0_9allocatorIcEEEEEC1ERKS7_, symObjAddr: 0x15194, symBinAddr: 0x100017620, symSize: 0x34 }
  - { offsetInCU: 0x2CEE7, offset: 0x2CEE7, size: 0x8, addend: 0x0, symName: __ZNSt3__16vectorIP4trieINS_12basic_stringIcNS_11char_traitsIcEENS_9allocatorIcEEEEENS5_IS9_EEE9push_backB8ue170006ERKS9_, symObjAddr: 0x151C8, symBinAddr: 0x100017654, symSize: 0x6C }
  - { offsetInCU: 0x2CF1E, offset: 0x2CF1E, size: 0x8, addend: 0x0, symName: __ZNSt3__16vectorIP4trieINS_12basic_stringIcNS_11char_traitsIcEENS_9allocatorIcEEEEENS5_IS9_EEE6insertENS_11__wrap_iterIPKS9_EERSD_, symObjAddr: 0x1526C, symBinAddr: 0x1000176F8, symSize: 0x1FC }
  - { offsetInCU: 0x2CFB5, offset: 0x2CFB5, size: 0x8, addend: 0x0, symName: __ZNSt3__16vectorIP4trieINS_12basic_stringIcNS_11char_traitsIcEENS_9allocatorIcEEEEENS5_IS9_EEE5beginB8ue170006Ev, symObjAddr: 0x15468, symBinAddr: 0x1000178F4, symSize: 0x30 }
  - { offsetInCU: 0x2CFDD, offset: 0x2CFDD, size: 0x8, addend: 0x0, symName: __ZNKSt3__111__wrap_iterIPP4trieINS_12basic_stringIcNS_11char_traitsIcEENS_9allocatorIcEEEEEEplB8ue170006El, symObjAddr: 0x15498, symBinAddr: 0x100017924, symSize: 0x3C }
  - { offsetInCU: 0x2D025, offset: 0x2D025, size: 0x8, addend: 0x0, symName: __ZNSt3__111__wrap_iterIPKP4trieINS_12basic_stringIcNS_11char_traitsIcEENS_9allocatorIcEEEEEEC1B8ue170006IPS9_EERKNS0_IT_EEPNS_9enable_ifIXsr14is_convertibleISF_SB_EE5valueEvE4typeE, symObjAddr: 0x154D4, symBinAddr: 0x100017960, symSize: 0x3C }
  - { offsetInCU: 0x2D070, offset: 0x2D070, size: 0x8, addend: 0x0, symName: __ZN4trieINSt3__112basic_stringIcNS0_11char_traitsIcEENS0_9allocatorIcEEEEEC2ERKS7_, symObjAddr: 0x15510, symBinAddr: 0x10001799C, symSize: 0x120 }
  - { offsetInCU: 0x2D0BE, offset: 0x2D0BE, size: 0x8, addend: 0x0, symName: __ZN3bagI4trieINSt3__112basic_stringIcNS1_11char_traitsIcEENS1_9allocatorIcEEEEEEaSERKS9_, symObjAddr: 0x15630, symBinAddr: 0x100017ABC, symSize: 0x158 }
  - { offsetInCU: 0x2D136, offset: 0x2D136, size: 0x8, addend: 0x0, symName: __ZN3bagI4trieINSt3__112basic_stringIcNS1_11char_traitsIcEENS1_9allocatorIcEEEEEE12setAllParentEPS8_, symObjAddr: 0x15788, symBinAddr: 0x100017C14, symSize: 0x84 }
  - { offsetInCU: 0x2D186, offset: 0x2D186, size: 0x8, addend: 0x0, symName: __ZN3bagI4trieINSt3__112basic_stringIcNS1_11char_traitsIcEENS1_9allocatorIcEEEEEED1Ev, symObjAddr: 0x1580C, symBinAddr: 0x100017C98, symSize: 0x2C }
  - { offsetInCU: 0x2D1B0, offset: 0x2D1B0, size: 0x8, addend: 0x0, symName: __ZNSt3__16vectorIP4trieINS_12basic_stringIcNS_11char_traitsIcEENS_9allocatorIcEEEEENS5_IS9_EEE5clearB8ue170006Ev, symObjAddr: 0x15838, symBinAddr: 0x100017CC4, symSize: 0x44 }
  - { offsetInCU: 0x2D1E5, offset: 0x2D1E5, size: 0x8, addend: 0x0, symName: __ZNKSt3__16vectorIP4trieINS_12basic_stringIcNS_11char_traitsIcEENS_9allocatorIcEEEEENS5_IS9_EEEixB8ue170006Em, symObjAddr: 0x1587C, symBinAddr: 0x100017D08, symSize: 0x24 }
  - { offsetInCU: 0x2D21C, offset: 0x2D21C, size: 0x8, addend: 0x0, symName: __ZNSt3__16vectorIP4trieINS_12basic_stringIcNS_11char_traitsIcEENS_9allocatorIcEEEEENS5_IS9_EEE7__clearB8ue170006Ev, symObjAddr: 0x158A0, symBinAddr: 0x100017D2C, symSize: 0x28 }
  - { offsetInCU: 0x2D242, offset: 0x2D242, size: 0x8, addend: 0x0, symName: __ZNKSt3__16vectorIP4trieINS_12basic_stringIcNS_11char_traitsIcEENS_9allocatorIcEEEEENS5_IS9_EEE17__annotate_shrinkB8ue170006Em, symObjAddr: 0x158C8, symBinAddr: 0x100017D54, symSize: 0xB4 }
  - { offsetInCU: 0x2D277, offset: 0x2D277, size: 0x8, addend: 0x0, symName: __ZNSt3__16vectorIP4trieINS_12basic_stringIcNS_11char_traitsIcEENS_9allocatorIcEEEEENS5_IS9_EEE22__base_destruct_at_endB8ue170006EPS9_, symObjAddr: 0x1597C, symBinAddr: 0x100017E08, symSize: 0x8C }
  - { offsetInCU: 0x2D2BB, offset: 0x2D2BB, size: 0x8, addend: 0x0, symName: __ZNSt3__116allocator_traitsINS_9allocatorIP4trieINS_12basic_stringIcNS_11char_traitsIcEENS1_IcEEEEEEEE7destroyB8ue170006IS9_vEEvRSA_PT_, symObjAddr: 0x15A08, symBinAddr: 0x100017E94, symSize: 0x2C }
  - { offsetInCU: 0x2D2F8, offset: 0x2D2F8, size: 0x8, addend: 0x0, symName: __ZNSt3__16vectorIP4trieINS_12basic_stringIcNS_11char_traitsIcEENS_9allocatorIcEEEEENS5_IS9_EEE7__allocB8ue170006Ev, symObjAddr: 0x15A34, symBinAddr: 0x100017EC0, symSize: 0x28 }
  - { offsetInCU: 0x2D31E, offset: 0x2D31E, size: 0x8, addend: 0x0, symName: __ZNSt3__19allocatorIP4trieINS_12basic_stringIcNS_11char_traitsIcEENS0_IcEEEEEE7destroyB8ue170006EPS8_, symObjAddr: 0x15A70, symBinAddr: 0x100017EFC, symSize: 0x14 }
  - { offsetInCU: 0x2D352, offset: 0x2D352, size: 0x8, addend: 0x0, symName: __ZNSt3__117__compressed_pairIPP4trieINS_12basic_stringIcNS_11char_traitsIcEENS_9allocatorIcEEEEENS5_IS9_EEE6secondB8ue170006Ev, symObjAddr: 0x15A84, symBinAddr: 0x100017F10, symSize: 0x24 }
  - { offsetInCU: 0x2D378, offset: 0x2D378, size: 0x8, addend: 0x0, symName: __ZNSt3__122__compressed_pair_elemINS_9allocatorIP4trieINS_12basic_stringIcNS_11char_traitsIcEENS1_IcEEEEEEELi1ELb1EE5__getB8ue170006Ev, symObjAddr: 0x15AA8, symBinAddr: 0x100017F34, symSize: 0x14 }
  - { offsetInCU: 0x2D39E, offset: 0x2D39E, size: 0x8, addend: 0x0, symName: __ZNKSt3__16vectorIP4trieINS_12basic_stringIcNS_11char_traitsIcEENS_9allocatorIcEEEEENS5_IS9_EEE31__annotate_contiguous_containerB8ue170006EPKvSD_SD_SD_, symObjAddr: 0x15ABC, symBinAddr: 0x100017F48, symSize: 0x20 }
  - { offsetInCU: 0x2D3F0, offset: 0x2D3F0, size: 0x8, addend: 0x0, symName: __ZNKSt3__16vectorIP4trieINS_12basic_stringIcNS_11char_traitsIcEENS_9allocatorIcEEEEENS5_IS9_EEE4dataB8ue170006Ev, symObjAddr: 0x15ADC, symBinAddr: 0x100017F68, symSize: 0x28 }
  - { offsetInCU: 0x2D416, offset: 0x2D416, size: 0x8, addend: 0x0, symName: __ZNKSt3__16vectorIP4trieINS_12basic_stringIcNS_11char_traitsIcEENS_9allocatorIcEEEEENS5_IS9_EEE8capacityB8ue170006Ev, symObjAddr: 0x15B04, symBinAddr: 0x100017F90, symSize: 0x40 }
  - { offsetInCU: 0x2D43C, offset: 0x2D43C, size: 0x8, addend: 0x0, symName: __ZNKSt3__16vectorIP4trieINS_12basic_stringIcNS_11char_traitsIcEENS_9allocatorIcEEEEENS5_IS9_EEE9__end_capB8ue170006Ev, symObjAddr: 0x15B44, symBinAddr: 0x100017FD0, symSize: 0x28 }
  - { offsetInCU: 0x2D462, offset: 0x2D462, size: 0x8, addend: 0x0, symName: __ZNKSt3__117__compressed_pairIPP4trieINS_12basic_stringIcNS_11char_traitsIcEENS_9allocatorIcEEEEENS5_IS9_EEE5firstB8ue170006Ev, symObjAddr: 0x15B6C, symBinAddr: 0x100017FF8, symSize: 0x24 }
  - { offsetInCU: 0x2D488, offset: 0x2D488, size: 0x8, addend: 0x0, symName: __ZNKSt3__122__compressed_pair_elemIPP4trieINS_12basic_stringIcNS_11char_traitsIcEENS_9allocatorIcEEEEELi0ELb0EE5__getB8ue170006Ev, symObjAddr: 0x15B90, symBinAddr: 0x10001801C, symSize: 0x14 }
  - { offsetInCU: 0x2D4AE, offset: 0x2D4AE, size: 0x8, addend: 0x0, symName: __ZN3bagI4trieINSt3__112basic_stringIcNS1_11char_traitsIcEENS1_9allocatorIcEEEEEED2Ev, symObjAddr: 0x15BA4, symBinAddr: 0x100018030, symSize: 0xBC }
  - { offsetInCU: 0x2D529, offset: 0x2D529, size: 0x8, addend: 0x0, symName: __ZNSt3__16vectorIP4trieINS_12basic_stringIcNS_11char_traitsIcEENS_9allocatorIcEEEEENS5_IS9_EEE3endB8ue170006Ev, symObjAddr: 0x15C60, symBinAddr: 0x1000180EC, symSize: 0x30 }
  - { offsetInCU: 0x2D551, offset: 0x2D551, size: 0x8, addend: 0x0, symName: __ZNKSt3__111__wrap_iterIPP4trieINS_12basic_stringIcNS_11char_traitsIcEENS_9allocatorIcEEEEEEdeB8ue170006Ev, symObjAddr: 0x15CC4, symBinAddr: 0x100018150, symSize: 0x18 }
  - { offsetInCU: 0x2D577, offset: 0x2D577, size: 0x8, addend: 0x0, symName: __ZNSt3__111__wrap_iterIPP4trieINS_12basic_stringIcNS_11char_traitsIcEENS_9allocatorIcEEEEEEppB8ue170006Ev, symObjAddr: 0x15CDC, symBinAddr: 0x100018168, symSize: 0x20 }
  - { offsetInCU: 0x2D59D, offset: 0x2D59D, size: 0x8, addend: 0x0, symName: __ZNSt3__16vectorIP4trieINS_12basic_stringIcNS_11char_traitsIcEENS_9allocatorIcEEEEENS5_IS9_EEED1B8ue170006Ev, symObjAddr: 0x15CFC, symBinAddr: 0x100018188, symSize: 0x2C }
  - { offsetInCU: 0x2D5C7, offset: 0x2D5C7, size: 0x8, addend: 0x0, symName: __ZNSt3__16vectorIP4trieINS_12basic_stringIcNS_11char_traitsIcEENS_9allocatorIcEEEEENS5_IS9_EEE11__make_iterB8ue170006EPS9_, symObjAddr: 0x15D28, symBinAddr: 0x1000181B4, symSize: 0x30 }
  - { offsetInCU: 0x2D5FC, offset: 0x2D5FC, size: 0x8, addend: 0x0, symName: __ZNSt3__111__wrap_iterIPP4trieINS_12basic_stringIcNS_11char_traitsIcEENS_9allocatorIcEEEEEEC1B8ue170006ESA_, symObjAddr: 0x15D58, symBinAddr: 0x1000181E4, symSize: 0x34 }
  - { offsetInCU: 0x2D634, offset: 0x2D634, size: 0x8, addend: 0x0, symName: __ZNSt3__111__wrap_iterIPP4trieINS_12basic_stringIcNS_11char_traitsIcEENS_9allocatorIcEEEEEEC2B8ue170006ESA_, symObjAddr: 0x15D8C, symBinAddr: 0x100018218, symSize: 0x20 }
  - { offsetInCU: 0x2D66C, offset: 0x2D66C, size: 0x8, addend: 0x0, symName: __ZNKSt3__111__wrap_iterIPP4trieINS_12basic_stringIcNS_11char_traitsIcEENS_9allocatorIcEEEEEE4baseB8ue170006Ev, symObjAddr: 0x15DF4, symBinAddr: 0x100018280, symSize: 0x18 }
  - { offsetInCU: 0x2D692, offset: 0x2D692, size: 0x8, addend: 0x0, symName: __ZNSt3__16vectorIP4trieINS_12basic_stringIcNS_11char_traitsIcEENS_9allocatorIcEEEEENS5_IS9_EEED2B8ue170006Ev, symObjAddr: 0x15E0C, symBinAddr: 0x100018298, symSize: 0x44 }
  - { offsetInCU: 0x2D6BC, offset: 0x2D6BC, size: 0x8, addend: 0x0, symName: __ZNSt3__16vectorIP4trieINS_12basic_stringIcNS_11char_traitsIcEENS_9allocatorIcEEEEENS5_IS9_EEE16__destroy_vectorC1B8ue170006ERSB_, symObjAddr: 0x15E50, symBinAddr: 0x1000182DC, symSize: 0x34 }
  - { offsetInCU: 0x2D6F5, offset: 0x2D6F5, size: 0x8, addend: 0x0, symName: __ZNSt3__16vectorIP4trieINS_12basic_stringIcNS_11char_traitsIcEENS_9allocatorIcEEEEENS5_IS9_EEE16__destroy_vectorclB8ue170006Ev, symObjAddr: 0x15E84, symBinAddr: 0x100018310, symSize: 0x90 }
  - { offsetInCU: 0x2D71B, offset: 0x2D71B, size: 0x8, addend: 0x0, symName: __ZNSt3__16vectorIP4trieINS_12basic_stringIcNS_11char_traitsIcEENS_9allocatorIcEEEEENS5_IS9_EEE16__destroy_vectorC2B8ue170006ERSB_, symObjAddr: 0x15F14, symBinAddr: 0x1000183A0, symSize: 0x20 }
  - { offsetInCU: 0x2D754, offset: 0x2D754, size: 0x8, addend: 0x0, symName: __ZNKSt3__16vectorIP4trieINS_12basic_stringIcNS_11char_traitsIcEENS_9allocatorIcEEEEENS5_IS9_EEE17__annotate_deleteB8ue170006Ev, symObjAddr: 0x15F34, symBinAddr: 0x1000183C0, symSize: 0xB8 }
  - { offsetInCU: 0x2D77A, offset: 0x2D77A, size: 0x8, addend: 0x0, symName: __ZNSt3__116allocator_traitsINS_9allocatorIP4trieINS_12basic_stringIcNS_11char_traitsIcEENS1_IcEEEEEEEE10deallocateB8ue170006ERSA_PS9_m, symObjAddr: 0x15FEC, symBinAddr: 0x100018478, symSize: 0x34 }
  - { offsetInCU: 0x2D7BC, offset: 0x2D7BC, size: 0x8, addend: 0x0, symName: __ZNSt3__19allocatorIP4trieINS_12basic_stringIcNS_11char_traitsIcEENS0_IcEEEEEE10deallocateB8ue170006EPS8_m, symObjAddr: 0x16020, symBinAddr: 0x1000184AC, symSize: 0x40 }
  - { offsetInCU: 0x2D7FE, offset: 0x2D7FE, size: 0x8, addend: 0x0, symName: __ZNSt3__16vectorIP4trieINS_12basic_stringIcNS_11char_traitsIcEENS_9allocatorIcEEEEENS5_IS9_EEE9__end_capB8ue170006Ev, symObjAddr: 0x16060, symBinAddr: 0x1000184EC, symSize: 0x28 }
  - { offsetInCU: 0x2D824, offset: 0x2D824, size: 0x8, addend: 0x0, symName: __ZNSt3__16vectorIP4trieINS_12basic_stringIcNS_11char_traitsIcEENS_9allocatorIcEEEEENS5_IS9_EEE22__construct_one_at_endB8ue170006IJRKS9_EEEvDpOT_, symObjAddr: 0x16088, symBinAddr: 0x100018514, symSize: 0x90 }
  - { offsetInCU: 0x2D873, offset: 0x2D873, size: 0x8, addend: 0x0, symName: __ZNSt3__16vectorIP4trieINS_12basic_stringIcNS_11char_traitsIcEENS_9allocatorIcEEEEENS5_IS9_EEE21__push_back_slow_pathIRKS9_EEvOT_, symObjAddr: 0x16118, symBinAddr: 0x1000185A4, symSize: 0xD8 }
  - { offsetInCU: 0x2D8D1, offset: 0x2D8D1, size: 0x8, addend: 0x0, symName: __ZNSt3__117__compressed_pairIPP4trieINS_12basic_stringIcNS_11char_traitsIcEENS_9allocatorIcEEEEENS5_IS9_EEE5firstB8ue170006Ev, symObjAddr: 0x161F0, symBinAddr: 0x10001867C, symSize: 0x24 }
  - { offsetInCU: 0x2D8F7, offset: 0x2D8F7, size: 0x8, addend: 0x0, symName: __ZNSt3__122__compressed_pair_elemIPP4trieINS_12basic_stringIcNS_11char_traitsIcEENS_9allocatorIcEEEEELi0ELb0EE5__getB8ue170006Ev, symObjAddr: 0x16214, symBinAddr: 0x1000186A0, symSize: 0x14 }
  - { offsetInCU: 0x2D938, offset: 0x2D938, size: 0x8, addend: 0x0, symName: __ZNSt3__16vectorIP4trieINS_12basic_stringIcNS_11char_traitsIcEENS_9allocatorIcEEEEENS5_IS9_EEE21_ConstructTransactionC1B8ue170006ERSB_m, symObjAddr: 0x16228, symBinAddr: 0x1000186B4, symSize: 0x3C }
  - { offsetInCU: 0x2D980, offset: 0x2D980, size: 0x8, addend: 0x0, symName: __ZNSt3__116allocator_traitsINS_9allocatorIP4trieINS_12basic_stringIcNS_11char_traitsIcEENS1_IcEEEEEEEE9constructB8ue170006IS9_JRKS9_EvEEvRSA_PT_DpOT0_, symObjAddr: 0x16264, symBinAddr: 0x1000186F0, symSize: 0x34 }
  - { offsetInCU: 0x2D9D7, offset: 0x2D9D7, size: 0x8, addend: 0x0, symName: __ZNSt3__16vectorIP4trieINS_12basic_stringIcNS_11char_traitsIcEENS_9allocatorIcEEEEENS5_IS9_EEE21_ConstructTransactionD1B8ue170006Ev, symObjAddr: 0x16298, symBinAddr: 0x100018724, symSize: 0x2C }
  - { offsetInCU: 0x2DA01, offset: 0x2DA01, size: 0x8, addend: 0x0, symName: __ZNSt3__16vectorIP4trieINS_12basic_stringIcNS_11char_traitsIcEENS_9allocatorIcEEEEENS5_IS9_EEE21_ConstructTransactionC2B8ue170006ERSB_m, symObjAddr: 0x162C4, symBinAddr: 0x100018750, symSize: 0x44 }
  - { offsetInCU: 0x2DA49, offset: 0x2DA49, size: 0x8, addend: 0x0, symName: __ZNSt3__19allocatorIP4trieINS_12basic_stringIcNS_11char_traitsIcEENS0_IcEEEEEE9constructB8ue170006IS8_JRKS8_EEEvPT_DpOT0_, symObjAddr: 0x16308, symBinAddr: 0x100018794, symSize: 0x28 }
  - { offsetInCU: 0x2DA9F, offset: 0x2DA9F, size: 0x8, addend: 0x0, symName: __ZNSt3__16vectorIP4trieINS_12basic_stringIcNS_11char_traitsIcEENS_9allocatorIcEEEEENS5_IS9_EEE21_ConstructTransactionD2B8ue170006Ev, symObjAddr: 0x16330, symBinAddr: 0x1000187BC, symSize: 0x20 }
  - { offsetInCU: 0x2DAC9, offset: 0x2DAC9, size: 0x8, addend: 0x0, symName: __ZNKSt3__16vectorIP4trieINS_12basic_stringIcNS_11char_traitsIcEENS_9allocatorIcEEEEENS5_IS9_EEE11__recommendB8ue170006Em, symObjAddr: 0x16350, symBinAddr: 0x1000187DC, symSize: 0xB4 }
  - { offsetInCU: 0x2DB1E, offset: 0x2DB1E, size: 0x8, addend: 0x0, symName: __ZNSt3__114__split_bufferIP4trieINS_12basic_stringIcNS_11char_traitsIcEENS_9allocatorIcEEEEERNS5_IS9_EEEC1EmmSB_, symObjAddr: 0x16404, symBinAddr: 0x100018890, symSize: 0x44 }
  - { offsetInCU: 0x2DB74, offset: 0x2DB74, size: 0x8, addend: 0x0, symName: __ZNSt3__114__split_bufferIP4trieINS_12basic_stringIcNS_11char_traitsIcEENS_9allocatorIcEEEEERNS5_IS9_EEED1Ev, symObjAddr: 0x16558, symBinAddr: 0x1000189E4, symSize: 0x2C }
  - { offsetInCU: 0x2DBA0, offset: 0x2DBA0, size: 0x8, addend: 0x0, symName: __ZNKSt3__16vectorIP4trieINS_12basic_stringIcNS_11char_traitsIcEENS_9allocatorIcEEEEENS5_IS9_EEE8max_sizeEv, symObjAddr: 0x16584, symBinAddr: 0x100018A10, symSize: 0x60 }
  - { offsetInCU: 0x2DBC8, offset: 0x2DBC8, size: 0x8, addend: 0x0, symName: __ZNKSt3__16vectorIP4trieINS_12basic_stringIcNS_11char_traitsIcEENS_9allocatorIcEEEEENS5_IS9_EEE20__throw_length_errorB8ue170006Ev, symObjAddr: 0x165E4, symBinAddr: 0x100018A70, symSize: 0x1C }
  - { offsetInCU: 0x2DBF9, offset: 0x2DBF9, size: 0x8, addend: 0x0, symName: __ZNSt3__116allocator_traitsINS_9allocatorIP4trieINS_12basic_stringIcNS_11char_traitsIcEENS1_IcEEEEEEEE8max_sizeB8ue170006ISA_vEEmRKSA_, symObjAddr: 0x16600, symBinAddr: 0x100018A8C, symSize: 0x24 }
  - { offsetInCU: 0x2DC27, offset: 0x2DC27, size: 0x8, addend: 0x0, symName: __ZNKSt3__16vectorIP4trieINS_12basic_stringIcNS_11char_traitsIcEENS_9allocatorIcEEEEENS5_IS9_EEE7__allocB8ue170006Ev, symObjAddr: 0x16624, symBinAddr: 0x100018AB0, symSize: 0x28 }
  - { offsetInCU: 0x2DC4D, offset: 0x2DC4D, size: 0x8, addend: 0x0, symName: __ZNKSt3__19allocatorIP4trieINS_12basic_stringIcNS_11char_traitsIcEENS0_IcEEEEEE8max_sizeB8ue170006Ev, symObjAddr: 0x1664C, symBinAddr: 0x100018AD8, symSize: 0x14 }
  - { offsetInCU: 0x2DC73, offset: 0x2DC73, size: 0x8, addend: 0x0, symName: __ZNKSt3__117__compressed_pairIPP4trieINS_12basic_stringIcNS_11char_traitsIcEENS_9allocatorIcEEEEENS5_IS9_EEE6secondB8ue170006Ev, symObjAddr: 0x16660, symBinAddr: 0x100018AEC, symSize: 0x24 }
  - { offsetInCU: 0x2DC99, offset: 0x2DC99, size: 0x8, addend: 0x0, symName: __ZNKSt3__122__compressed_pair_elemINS_9allocatorIP4trieINS_12basic_stringIcNS_11char_traitsIcEENS1_IcEEEEEEELi1ELb1EE5__getB8ue170006Ev, symObjAddr: 0x16684, symBinAddr: 0x100018B10, symSize: 0x14 }
  - { offsetInCU: 0x2DCBF, offset: 0x2DCBF, size: 0x8, addend: 0x0, symName: __ZNSt3__114__split_bufferIP4trieINS_12basic_stringIcNS_11char_traitsIcEENS_9allocatorIcEEEEERNS5_IS9_EEEC2EmmSB_, symObjAddr: 0x16698, symBinAddr: 0x100018B24, symSize: 0xD4 }
  - { offsetInCU: 0x2DD32, offset: 0x2DD32, size: 0x8, addend: 0x0, symName: __ZNSt3__117__compressed_pairIPP4trieINS_12basic_stringIcNS_11char_traitsIcEENS_9allocatorIcEEEEERNS5_IS9_EEEC1B8ue170006IDnSC_EEOT_OT0_, symObjAddr: 0x1676C, symBinAddr: 0x100018BF8, symSize: 0x3C }
  - { offsetInCU: 0x2DD8A, offset: 0x2DD8A, size: 0x8, addend: 0x0, symName: __ZNSt3__114__split_bufferIP4trieINS_12basic_stringIcNS_11char_traitsIcEENS_9allocatorIcEEEEERNS5_IS9_EEE7__allocB8ue170006Ev, symObjAddr: 0x167E8, symBinAddr: 0x100018C74, symSize: 0x28 }
  - { offsetInCU: 0x2DDB0, offset: 0x2DDB0, size: 0x8, addend: 0x0, symName: __ZNSt3__114__split_bufferIP4trieINS_12basic_stringIcNS_11char_traitsIcEENS_9allocatorIcEEEEERNS5_IS9_EEE9__end_capB8ue170006Ev, symObjAddr: 0x16810, symBinAddr: 0x100018C9C, symSize: 0x28 }
  - { offsetInCU: 0x2DDD6, offset: 0x2DDD6, size: 0x8, addend: 0x0, symName: __ZNSt3__117__compressed_pairIPP4trieINS_12basic_stringIcNS_11char_traitsIcEENS_9allocatorIcEEEEERNS5_IS9_EEEC2B8ue170006IDnSC_EEOT_OT0_, symObjAddr: 0x16838, symBinAddr: 0x100018CC4, symSize: 0x48 }
  - { offsetInCU: 0x2DE2E, offset: 0x2DE2E, size: 0x8, addend: 0x0, symName: __ZNSt3__122__compressed_pair_elemIRNS_9allocatorIP4trieINS_12basic_stringIcNS_11char_traitsIcEENS1_IcEEEEEEELi1ELb0EEC2B8ue170006ISB_vEEOT_, symObjAddr: 0x16880, symBinAddr: 0x100018D0C, symSize: 0x20 }
  - { offsetInCU: 0x2DE70, offset: 0x2DE70, size: 0x8, addend: 0x0, symName: __ZNSt3__19allocatorIP4trieINS_12basic_stringIcNS_11char_traitsIcEENS0_IcEEEEEE8allocateB8ue170006Em, symObjAddr: 0x168A0, symBinAddr: 0x100018D2C, symSize: 0x58 }
  - { offsetInCU: 0x2DEA4, offset: 0x2DEA4, size: 0x8, addend: 0x0, symName: __ZNSt3__117__compressed_pairIPP4trieINS_12basic_stringIcNS_11char_traitsIcEENS_9allocatorIcEEEEERNS5_IS9_EEE6secondB8ue170006Ev, symObjAddr: 0x168F8, symBinAddr: 0x100018D84, symSize: 0x28 }
  - { offsetInCU: 0x2DECA, offset: 0x2DECA, size: 0x8, addend: 0x0, symName: __ZNSt3__122__compressed_pair_elemIRNS_9allocatorIP4trieINS_12basic_stringIcNS_11char_traitsIcEENS1_IcEEEEEEELi1ELb0EE5__getB8ue170006Ev, symObjAddr: 0x16920, symBinAddr: 0x100018DAC, symSize: 0x18 }
  - { offsetInCU: 0x2DEF0, offset: 0x2DEF0, size: 0x8, addend: 0x0, symName: __ZNSt3__117__compressed_pairIPP4trieINS_12basic_stringIcNS_11char_traitsIcEENS_9allocatorIcEEEEERNS5_IS9_EEE5firstB8ue170006Ev, symObjAddr: 0x16938, symBinAddr: 0x100018DC4, symSize: 0x24 }
  - { offsetInCU: 0x2DF16, offset: 0x2DF16, size: 0x8, addend: 0x0, symName: __ZNSt3__116reverse_iteratorIPP4trieINS_12basic_stringIcNS_11char_traitsIcEENS_9allocatorIcEEEEEEC1B8ue170006ESA_, symObjAddr: 0x169D4, symBinAddr: 0x100018E60, symSize: 0x34 }
  - { offsetInCU: 0x2DF4E, offset: 0x2DF4E, size: 0x8, addend: 0x0, symName: __ZNKSt3__116reverse_iteratorIPP4trieINS_12basic_stringIcNS_11char_traitsIcEENS_9allocatorIcEEEEEE4baseB8ue170006Ev, symObjAddr: 0x16A08, symBinAddr: 0x100018E94, symSize: 0x18 }
  - { offsetInCU: 0x2DF74, offset: 0x2DF74, size: 0x8, addend: 0x0, symName: __ZNKSt3__16vectorIP4trieINS_12basic_stringIcNS_11char_traitsIcEENS_9allocatorIcEEEEENS5_IS9_EEE14__annotate_newB8ue170006Em, symObjAddr: 0x16A5C, symBinAddr: 0x100018EE8, symSize: 0xAC }
  - { offsetInCU: 0x2DFC5, offset: 0x2DFC5, size: 0x8, addend: 0x0, symName: __ZNKSt3__111__move_loopINS_17_ClassicAlgPolicyEEclB8ue170006INS_16reverse_iteratorIPP4trieINS_12basic_stringIcNS_11char_traitsIcEENS_9allocatorIcEEEEEEESF_SF_EENS_4pairIT_T1_EESH_T0_SI_, symObjAddr: 0x16DF8, symBinAddr: 0x100019284, symSize: 0xA0 }
  - { offsetInCU: 0x2E030, offset: 0x2E030, size: 0x8, addend: 0x0, symName: __ZNSt3__18_IterOpsINS_17_ClassicAlgPolicyEE11__iter_moveB8ue170006IRNS_16reverse_iteratorIPP4trieINS_12basic_stringIcNS_11char_traitsIcEENS_9allocatorIcEEEEEEEEENS_9enable_ifIXsr12is_referenceIDTdeclsr3stdE7declvalIRT_EEEEE5valueEDTclsr3stdE4movedeclsr3stdE7declvalISJ_EEEEE4typeEOSI_, symObjAddr: 0x1702C, symBinAddr: 0x1000194B8, symSize: 0x28 }
  - { offsetInCU: 0x2E05C, offset: 0x2E05C, size: 0x8, addend: 0x0, symName: __ZNKSt3__116reverse_iteratorIPP4trieINS_12basic_stringIcNS_11char_traitsIcEENS_9allocatorIcEEEEEEdeB8ue170006Ev, symObjAddr: 0x17054, symBinAddr: 0x1000194E0, symSize: 0x28 }
  - { offsetInCU: 0x2E090, offset: 0x2E090, size: 0x8, addend: 0x0, symName: __ZNSt3__116reverse_iteratorIPP4trieINS_12basic_stringIcNS_11char_traitsIcEENS_9allocatorIcEEEEEEppB8ue170006Ev, symObjAddr: 0x1707C, symBinAddr: 0x100019508, symSize: 0x20 }
  - { offsetInCU: 0x2E0B6, offset: 0x2E0B6, size: 0x8, addend: 0x0, symName: __ZNSt3__18_IterOpsINS_17_ClassicAlgPolicyEE25__validate_iter_referenceB8ue170006IRNS_16reverse_iteratorIPP4trieINS_12basic_stringIcNS_11char_traitsIcEENS_9allocatorIcEEEEEEEEEvv, symObjAddr: 0x1709C, symBinAddr: 0x100019528, symSize: 0x4 }
  - { offsetInCU: 0x2E0D4, offset: 0x2E0D4, size: 0x8, addend: 0x0, symName: __ZNSt3__118__unwrap_iter_implINS_16reverse_iteratorIPP4trieINS_12basic_stringIcNS_11char_traitsIcEENS_9allocatorIcEEEEEEELb0EE8__unwrapB8ue170006ESC_, symObjAddr: 0x170A0, symBinAddr: 0x10001952C, symSize: 0x24 }
  - { offsetInCU: 0x2E0FD, offset: 0x2E0FD, size: 0x8, addend: 0x0, symName: __ZNSt3__14pairINS_16reverse_iteratorIPP4trieINS_12basic_stringIcNS_11char_traitsIcEENS_9allocatorIcEEEEEEESC_EC1B8ue170006ISC_SC_LPv0EEEOT_OT0_, symObjAddr: 0x170C4, symBinAddr: 0x100019550, symSize: 0x3C }
  - { offsetInCU: 0x2E15B, offset: 0x2E15B, size: 0x8, addend: 0x0, symName: __ZNSt3__14pairINS_16reverse_iteratorIPP4trieINS_12basic_stringIcNS_11char_traitsIcEENS_9allocatorIcEEEEEEESC_EC2B8ue170006ISC_SC_LPv0EEEOT_OT0_, symObjAddr: 0x17100, symBinAddr: 0x10001958C, symSize: 0x34 }
  - { offsetInCU: 0x2E1B9, offset: 0x2E1B9, size: 0x8, addend: 0x0, symName: __ZNSt3__118__unwrap_iter_implINS_16reverse_iteratorIPP4trieINS_12basic_stringIcNS_11char_traitsIcEENS_9allocatorIcEEEEEEELb0EE8__rewrapB8ue170006ESC_SC_, symObjAddr: 0x17134, symBinAddr: 0x1000195C0, symSize: 0x2C }
  - { offsetInCU: 0x2E1E6, offset: 0x2E1E6, size: 0x8, addend: 0x0, symName: __ZNSt3__116reverse_iteratorIPP4trieINS_12basic_stringIcNS_11char_traitsIcEENS_9allocatorIcEEEEEEC2B8ue170006ESA_, symObjAddr: 0x17160, symBinAddr: 0x1000195EC, symSize: 0x28 }
  - { offsetInCU: 0x2E21E, offset: 0x2E21E, size: 0x8, addend: 0x0, symName: __ZNSt3__114__split_bufferIP4trieINS_12basic_stringIcNS_11char_traitsIcEENS_9allocatorIcEEEEERNS5_IS9_EEED2Ev, symObjAddr: 0x17188, symBinAddr: 0x100019614, symSize: 0x8C }
  - { offsetInCU: 0x2E24A, offset: 0x2E24A, size: 0x8, addend: 0x0, symName: __ZNSt3__114__split_bufferIP4trieINS_12basic_stringIcNS_11char_traitsIcEENS_9allocatorIcEEEEERNS5_IS9_EEE5clearB8ue170006Ev, symObjAddr: 0x17214, symBinAddr: 0x1000196A0, symSize: 0x28 }
  - { offsetInCU: 0x2E270, offset: 0x2E270, size: 0x8, addend: 0x0, symName: __ZNKSt3__114__split_bufferIP4trieINS_12basic_stringIcNS_11char_traitsIcEENS_9allocatorIcEEEEERNS5_IS9_EEE8capacityB8ue170006Ev, symObjAddr: 0x1723C, symBinAddr: 0x1000196C8, symSize: 0x40 }
  - { offsetInCU: 0x2E296, offset: 0x2E296, size: 0x8, addend: 0x0, symName: __ZNSt3__114__split_bufferIP4trieINS_12basic_stringIcNS_11char_traitsIcEENS_9allocatorIcEEEEERNS5_IS9_EEE17__destruct_at_endB8ue170006EPS9_, symObjAddr: 0x1727C, symBinAddr: 0x100019708, symSize: 0x2C }
  - { offsetInCU: 0x2E2CA, offset: 0x2E2CA, size: 0x8, addend: 0x0, symName: __ZNSt3__114__split_bufferIP4trieINS_12basic_stringIcNS_11char_traitsIcEENS_9allocatorIcEEEEERNS5_IS9_EEE17__destruct_at_endB8ue170006EPS9_NS_17integral_constantIbLb0EEE, symObjAddr: 0x172A8, symBinAddr: 0x100019734, symSize: 0x80 }
  - { offsetInCU: 0x2E30A, offset: 0x2E30A, size: 0x8, addend: 0x0, symName: __ZNKSt3__114__split_bufferIP4trieINS_12basic_stringIcNS_11char_traitsIcEENS_9allocatorIcEEEEERNS5_IS9_EEE9__end_capB8ue170006Ev, symObjAddr: 0x17328, symBinAddr: 0x1000197B4, symSize: 0x28 }
  - { offsetInCU: 0x2E330, offset: 0x2E330, size: 0x8, addend: 0x0, symName: __ZNKSt3__117__compressed_pairIPP4trieINS_12basic_stringIcNS_11char_traitsIcEENS_9allocatorIcEEEEERNS5_IS9_EEE5firstB8ue170006Ev, symObjAddr: 0x17350, symBinAddr: 0x1000197DC, symSize: 0x24 }
  - { offsetInCU: 0x2E356, offset: 0x2E356, size: 0x8, addend: 0x0, symName: __ZNKSt3__112basic_stringIcNS_11char_traitsIcEENS_9allocatorIcEEE7compareB8ue170006ERKS5_, symObjAddr: 0x17374, symBinAddr: 0x100019800, symSize: 0x4C }
  - { offsetInCU: 0x2E38D, offset: 0x2E38D, size: 0x8, addend: 0x0, symName: __ZNKSt3__112basic_stringIcNS_11char_traitsIcEENS_9allocatorIcEEE7compareINS_17basic_string_viewIcS2_EELi0EEEiRKT_, symObjAddr: 0x173C0, symBinAddr: 0x10001984C, symSize: 0x12C }
  - { offsetInCU: 0x2E410, offset: 0x2E410, size: 0x8, addend: 0x0, symName: __ZNKSt3__112basic_stringIcNS_11char_traitsIcEENS_9allocatorIcEEEcvNS_17basic_string_viewIcS2_EEB8ue170006Ev, symObjAddr: 0x174EC, symBinAddr: 0x100019978, symSize: 0x50 }
  - { offsetInCU: 0x2E436, offset: 0x2E436, size: 0x8, addend: 0x0, symName: __ZNSt3__117basic_string_viewIcNS_11char_traitsIcEEEC1B8ue170006EPKcm, symObjAddr: 0x1753C, symBinAddr: 0x1000199C8, symSize: 0x3C }
  - { offsetInCU: 0x2E47E, offset: 0x2E47E, size: 0x8, addend: 0x0, symName: __ZNSt3__117basic_string_viewIcNS_11char_traitsIcEEEC2B8ue170006EPKcm, symObjAddr: 0x17578, symBinAddr: 0x100019A04, symSize: 0x2C }
  - { offsetInCU: 0x2E4C6, offset: 0x2E4C6, size: 0x8, addend: 0x0, symName: __ZNSt3__16vectorIP4trieINS_12basic_stringIcNS_11char_traitsIcEENS_9allocatorIcEEEEENS5_IS9_EEE12__move_rangeEPS9_SC_SC_, symObjAddr: 0x175EC, symBinAddr: 0x100019A78, symSize: 0x12C }
  - { offsetInCU: 0x2E582, offset: 0x2E582, size: 0x8, addend: 0x0, symName: __ZNSt3__114pointer_traitsIPKP4trieINS_12basic_stringIcNS_11char_traitsIcEENS_9allocatorIcEEEEEE10pointer_toB8ue170006ERSA_, symObjAddr: 0x17718, symBinAddr: 0x100019BA4, symSize: 0x14 }
  - { offsetInCU: 0x2E5A5, offset: 0x2E5A5, size: 0x8, addend: 0x0, symName: __ZNSt3__114__split_bufferIP4trieINS_12basic_stringIcNS_11char_traitsIcEENS_9allocatorIcEEEEERNS5_IS9_EEE9push_backB8ue170006ERKS9_, symObjAddr: 0x1772C, symBinAddr: 0x100019BB8, symSize: 0x260 }
  - { offsetInCU: 0x2E61D, offset: 0x2E61D, size: 0x8, addend: 0x0, symName: __ZNKSt3__111__wrap_iterIPKP4trieINS_12basic_stringIcNS_11char_traitsIcEENS_9allocatorIcEEEEEE4baseB8ue170006Ev, symObjAddr: 0x17AD8, symBinAddr: 0x100019F64, symSize: 0x18 }
  - { offsetInCU: 0x2E643, offset: 0x2E643, size: 0x8, addend: 0x0, symName: __ZNSt3__116allocator_traitsINS_9allocatorIP4trieINS_12basic_stringIcNS_11char_traitsIcEENS1_IcEEEEEEEE9constructB8ue170006IS9_JS9_EvEEvRSA_PT_DpOT0_, symObjAddr: 0x17AF0, symBinAddr: 0x100019F7C, symSize: 0x34 }
  - { offsetInCU: 0x2E69A, offset: 0x2E69A, size: 0x8, addend: 0x0, symName: __ZNSt3__19allocatorIP4trieINS_12basic_stringIcNS_11char_traitsIcEENS0_IcEEEEEE9constructB8ue170006IS8_JS8_EEEvPT_DpOT0_, symObjAddr: 0x17B64, symBinAddr: 0x100019FF0, symSize: 0x28 }
  - { offsetInCU: 0x2E70C, offset: 0x2E70C, size: 0x8, addend: 0x0, symName: __ZNKSt3__123__move_backward_trivialclB8ue170006IP4trieINS_12basic_stringIcNS_11char_traitsIcEENS_9allocatorIcEEEEESA_Li0EEENS_4pairIPT_PT0_EESD_SD_SF_, symObjAddr: 0x17D28, symBinAddr: 0x10001A1B4, symSize: 0x48 }
  - { offsetInCU: 0x2E774, offset: 0x2E774, size: 0x8, addend: 0x0, symName: __ZNSt3__14pairIPP4trieINS_12basic_stringIcNS_11char_traitsIcEENS_9allocatorIcEEEEESA_EC1B8ue170006IRSA_SD_LPv0EEEOT_OT0_, symObjAddr: 0x17F60, symBinAddr: 0x10001A3EC, symSize: 0x3C }
  - { offsetInCU: 0x2E7D2, offset: 0x2E7D2, size: 0x8, addend: 0x0, symName: __ZNSt3__14pairIPP4trieINS_12basic_stringIcNS_11char_traitsIcEENS_9allocatorIcEEEEESA_EC2B8ue170006IRSA_SD_LPv0EEEOT_OT0_, symObjAddr: 0x17F9C, symBinAddr: 0x10001A428, symSize: 0x34 }
  - { offsetInCU: 0x2E830, offset: 0x2E830, size: 0x8, addend: 0x0, symName: __ZNSt3__118__unwrap_iter_implIPP4trieINS_12basic_stringIcNS_11char_traitsIcEENS_9allocatorIcEEEEELb1EE8__unwrapB8ue170006ESA_, symObjAddr: 0x17FD0, symBinAddr: 0x10001A45C, symSize: 0x24 }
  - { offsetInCU: 0x2E859, offset: 0x2E859, size: 0x8, addend: 0x0, symName: __ZNSt3__14pairIPP4trieINS_12basic_stringIcNS_11char_traitsIcEENS_9allocatorIcEEEEESA_EC1B8ue170006ISA_SA_LPv0EEEOT_OT0_, symObjAddr: 0x17FF4, symBinAddr: 0x10001A480, symSize: 0x3C }
  - { offsetInCU: 0x2E8B7, offset: 0x2E8B7, size: 0x8, addend: 0x0, symName: __ZNSt3__14pairIPP4trieINS_12basic_stringIcNS_11char_traitsIcEENS_9allocatorIcEEEEESA_EC2B8ue170006ISA_SA_LPv0EEEOT_OT0_, symObjAddr: 0x18030, symBinAddr: 0x10001A4BC, symSize: 0x34 }
  - { offsetInCU: 0x2E915, offset: 0x2E915, size: 0x8, addend: 0x0, symName: __ZNSt3__118__unwrap_iter_implIPP4trieINS_12basic_stringIcNS_11char_traitsIcEENS_9allocatorIcEEEEELb1EE8__rewrapB8ue170006ESA_SA_, symObjAddr: 0x18064, symBinAddr: 0x10001A4F0, symSize: 0x50 }
  - { offsetInCU: 0x2E946, offset: 0x2E946, size: 0x8, addend: 0x0, symName: __ZNSt3__114__split_bufferIP4trieINS_12basic_stringIcNS_11char_traitsIcEENS_9allocatorIcEEEEERNS5_IS9_EEE18__construct_at_endINS_13move_iteratorIPS9_EEEENS_9enable_ifIXsr31__has_forward_iterator_categoryIT_EE5valueEvE4typeESI_SI_, symObjAddr: 0x180F4, symBinAddr: 0x10001A580, symSize: 0x60 }
  - { offsetInCU: 0x2E993, offset: 0x2E993, size: 0x8, addend: 0x0, symName: __ZNSt3__113move_iteratorIPP4trieINS_12basic_stringIcNS_11char_traitsIcEENS_9allocatorIcEEEEEEC1B8ue170006ESA_, symObjAddr: 0x18154, symBinAddr: 0x10001A5E0, symSize: 0x34 }
  - { offsetInCU: 0x2E9CB, offset: 0x2E9CB, size: 0x8, addend: 0x0, symName: __ZNKSt3__114__move_trivialclB8ue170006IP4trieINS_12basic_stringIcNS_11char_traitsIcEENS_9allocatorIcEEEEESA_Li0EEENS_4pairIPT_PT0_EESD_SD_SF_, symObjAddr: 0x182C4, symBinAddr: 0x10001A750, symSize: 0x48 }
  - { offsetInCU: 0x2EA33, offset: 0x2EA33, size: 0x8, addend: 0x0, symName: __ZNSt3__14pairIPP4trieINS_12basic_stringIcNS_11char_traitsIcEENS_9allocatorIcEEEEESA_EC1B8ue170006IRSA_SA_LPv0EEEOT_OT0_, symObjAddr: 0x183C4, symBinAddr: 0x10001A850, symSize: 0x3C }
  - { offsetInCU: 0x2EA91, offset: 0x2EA91, size: 0x8, addend: 0x0, symName: __ZNSt3__14pairIPP4trieINS_12basic_stringIcNS_11char_traitsIcEENS_9allocatorIcEEEEESA_EC2B8ue170006IRSA_SA_LPv0EEEOT_OT0_, symObjAddr: 0x18400, symBinAddr: 0x10001A88C, symSize: 0x34 }
  - { offsetInCU: 0x2EAEF, offset: 0x2EAEF, size: 0x8, addend: 0x0, symName: __ZNSt3__114__split_bufferIP4trieINS_12basic_stringIcNS_11char_traitsIcEENS_9allocatorIcEEEEERNS5_IS9_EEE28__construct_at_end_with_sizeINS_13move_iteratorIPS9_EEEEvT_m, symObjAddr: 0x18434, symBinAddr: 0x10001A8C0, symSize: 0xDC }
  - { offsetInCU: 0x2EB55, offset: 0x2EB55, size: 0x8, addend: 0x0, symName: __ZNSt3__114__split_bufferIP4trieINS_12basic_stringIcNS_11char_traitsIcEENS_9allocatorIcEEEEERNS5_IS9_EEE21_ConstructTransactionC1B8ue170006EPPS9_m, symObjAddr: 0x1854C, symBinAddr: 0x10001A9D8, symSize: 0x3C }
  - { offsetInCU: 0x2EB9B, offset: 0x2EB9B, size: 0x8, addend: 0x0, symName: __ZNKSt3__113move_iteratorIPP4trieINS_12basic_stringIcNS_11char_traitsIcEENS_9allocatorIcEEEEEEdeB8ue170006Ev, symObjAddr: 0x18588, symBinAddr: 0x10001AA14, symSize: 0x18 }
  - { offsetInCU: 0x2EBC1, offset: 0x2EBC1, size: 0x8, addend: 0x0, symName: __ZNSt3__113move_iteratorIPP4trieINS_12basic_stringIcNS_11char_traitsIcEENS_9allocatorIcEEEEEEppB8ue170006Ev, symObjAddr: 0x185A0, symBinAddr: 0x10001AA2C, symSize: 0x20 }
  - { offsetInCU: 0x2EBE7, offset: 0x2EBE7, size: 0x8, addend: 0x0, symName: __ZNSt3__114__split_bufferIP4trieINS_12basic_stringIcNS_11char_traitsIcEENS_9allocatorIcEEEEERNS5_IS9_EEE21_ConstructTransactionD1B8ue170006Ev, symObjAddr: 0x185C0, symBinAddr: 0x10001AA4C, symSize: 0x2C }
  - { offsetInCU: 0x2EC11, offset: 0x2EC11, size: 0x8, addend: 0x0, symName: __ZNSt3__114__split_bufferIP4trieINS_12basic_stringIcNS_11char_traitsIcEENS_9allocatorIcEEEEERNS5_IS9_EEE21_ConstructTransactionC2B8ue170006EPPS9_m, symObjAddr: 0x185EC, symBinAddr: 0x10001AA78, symSize: 0x44 }
  - { offsetInCU: 0x2EC57, offset: 0x2EC57, size: 0x8, addend: 0x0, symName: __ZNSt3__114__split_bufferIP4trieINS_12basic_stringIcNS_11char_traitsIcEENS_9allocatorIcEEEEERNS5_IS9_EEE21_ConstructTransactionD2B8ue170006Ev, symObjAddr: 0x18630, symBinAddr: 0x10001AABC, symSize: 0x20 }
  - { offsetInCU: 0x2EC81, offset: 0x2EC81, size: 0x8, addend: 0x0, symName: __ZNKSt3__113move_iteratorIPP4trieINS_12basic_stringIcNS_11char_traitsIcEENS_9allocatorIcEEEEEE4baseB8ue170006Ev, symObjAddr: 0x186C8, symBinAddr: 0x10001AB54, symSize: 0x18 }
  - { offsetInCU: 0x2ECA7, offset: 0x2ECA7, size: 0x8, addend: 0x0, symName: __ZNSt3__113move_iteratorIPP4trieINS_12basic_stringIcNS_11char_traitsIcEENS_9allocatorIcEEEEEEC2B8ue170006ESA_, symObjAddr: 0x186E0, symBinAddr: 0x10001AB6C, symSize: 0x20 }
  - { offsetInCU: 0x2ECDF, offset: 0x2ECDF, size: 0x8, addend: 0x0, symName: __ZNSt3__111__wrap_iterIPP4trieINS_12basic_stringIcNS_11char_traitsIcEENS_9allocatorIcEEEEEEpLB8ue170006El, symObjAddr: 0x18738, symBinAddr: 0x10001ABC4, symSize: 0x28 }
  - { offsetInCU: 0x2ED13, offset: 0x2ED13, size: 0x8, addend: 0x0, symName: __ZNSt3__111__wrap_iterIPKP4trieINS_12basic_stringIcNS_11char_traitsIcEENS_9allocatorIcEEEEEEC2B8ue170006IPS9_EERKNS0_IT_EEPNS_9enable_ifIXsr14is_convertibleISF_SB_EE5valueEvE4typeE, symObjAddr: 0x18760, symBinAddr: 0x10001ABEC, symSize: 0x40 }
  - { offsetInCU: 0x2ED5E, offset: 0x2ED5E, size: 0x8, addend: 0x0, symName: __ZN4trieINSt3__112basic_stringIcNS0_11char_traitsIcEENS0_9allocatorIcEEEEED2Ev, symObjAddr: 0x187A0, symBinAddr: 0x10001AC2C, symSize: 0x98 }
  - { offsetInCU: 0x2ED8A, offset: 0x2ED8A, size: 0x8, addend: 0x0, symName: __ZN4trieINSt3__112basic_stringIcNS0_11char_traitsIcEENS0_9allocatorIcEEEEE12get_childrenEv, symObjAddr: 0x18838, symBinAddr: 0x10001ACC4, symSize: 0x18 }
  - { offsetInCU: 0x2EDB2, offset: 0x2EDB2, size: 0x8, addend: 0x0, symName: __ZNK3bagI4trieINSt3__112basic_stringIcNS1_11char_traitsIcEENS1_9allocatorIcEEEEEE7getSizeEv, symObjAddr: 0x18850, symBinAddr: 0x10001ACDC, symSize: 0x24 }
  - { offsetInCU: 0x2EDD8, offset: 0x2EDD8, size: 0x8, addend: 0x0, symName: __ZN4trieINSt3__112basic_stringIcNS0_11char_traitsIcEENS0_9allocatorIcEEEEE10get_parentEv, symObjAddr: 0x18874, symBinAddr: 0x10001AD00, symSize: 0x18 }
  - { offsetInCU: 0x2EE00, offset: 0x2EE00, size: 0x8, addend: 0x0, symName: __ZNK3bagI4trieINSt3__112basic_stringIcNS1_11char_traitsIcEENS1_9allocatorIcEEEEEE3getEi, symObjAddr: 0x1888C, symBinAddr: 0x10001AD18, symSize: 0x30 }
  - { offsetInCU: 0x2EE34, offset: 0x2EE34, size: 0x8, addend: 0x0, symName: __ZN3bagI4trieINSt3__112basic_stringIcNS1_11char_traitsIcEENS1_9allocatorIcEEEEEE7reorderEv, symObjAddr: 0x189F0, symBinAddr: 0x10001AE7C, symSize: 0x48 }
  - { offsetInCU: 0x2EE7E, offset: 0x2EE7E, size: 0x8, addend: 0x0, symName: __ZN3bagI4trieINSt3__112basic_stringIcNS1_11char_traitsIcEENS1_9allocatorIcEEEEEE5beginEv, symObjAddr: 0x18A38, symBinAddr: 0x10001AEC4, symSize: 0xEC }
  - { offsetInCU: 0x2EEA4, offset: 0x2EEA4, size: 0x8, addend: 0x0, symName: __ZNK3bagI4trieINSt3__112basic_stringIcNS1_11char_traitsIcEENS1_9allocatorIcEEEEEE17children_iteratorneERKSA_, symObjAddr: 0x18B24, symBinAddr: 0x10001AFB0, symSize: 0x34 }
  - { offsetInCU: 0x2EED8, offset: 0x2EED8, size: 0x8, addend: 0x0, symName: __ZN3bagI4trieINSt3__112basic_stringIcNS1_11char_traitsIcEENS1_9allocatorIcEEEEEE3endEv, symObjAddr: 0x18B58, symBinAddr: 0x10001AFE4, symSize: 0xA8 }
  - { offsetInCU: 0x2EF0E, offset: 0x2EF0E, size: 0x8, addend: 0x0, symName: __ZN3bagI4trieINSt3__112basic_stringIcNS1_11char_traitsIcEENS1_9allocatorIcEEEEEE17children_iteratorD1Ev, symObjAddr: 0x18C00, symBinAddr: 0x10001B08C, symSize: 0x2C }
  - { offsetInCU: 0x2EF3A, offset: 0x2EF3A, size: 0x8, addend: 0x0, symName: __ZNK3bagI4trieINSt3__112basic_stringIcNS1_11char_traitsIcEENS1_9allocatorIcEEEEEE17children_iteratorptEv, symObjAddr: 0x18C2C, symBinAddr: 0x10001B0B8, symSize: 0x18 }
  - { offsetInCU: 0x2EF60, offset: 0x2EF60, size: 0x8, addend: 0x0, symName: __ZN3bagI4trieINSt3__112basic_stringIcNS1_11char_traitsIcEENS1_9allocatorIcEEEEEE17children_iteratorppEi, symObjAddr: 0x18C44, symBinAddr: 0x10001B0D0, symSize: 0x158 }
  - { offsetInCU: 0x2EFBB, offset: 0x2EFBB, size: 0x8, addend: 0x0, symName: __ZNSt3__116allocator_traitsINS_9allocatorIcEEE37select_on_container_copy_constructionB8ue170006IS2_vvEES2_RKS2_, symObjAddr: 0x18D9C, symBinAddr: 0x10001B228, symSize: 0x10 }
  - { offsetInCU: 0x2EFEA, offset: 0x2EFEA, size: 0x8, addend: 0x0, symName: __ZNKSt3__112basic_stringIcNS_11char_traitsIcEENS_9allocatorIcEEE13get_allocatorB8ue170006Ev, symObjAddr: 0x18DAC, symBinAddr: 0x10001B238, symSize: 0x24 }
  - { offsetInCU: 0x2F010, offset: 0x2F010, size: 0x8, addend: 0x0, symName: __ZNSt3__112basic_stringIcNS_11char_traitsIcEENS_9allocatorIcEEEC1B8ue170006ENS_24__uninitialized_size_tagEmRKS4_, symObjAddr: 0x18DD0, symBinAddr: 0x10001B25C, symSize: 0x3C }
  - { offsetInCU: 0x2F063, offset: 0x2F063, size: 0x8, addend: 0x0, symName: __ZNSt3__111char_traitsIcE4copyB8ue170006EPcPKcm, symObjAddr: 0x18E0C, symBinAddr: 0x10001B298, symSize: 0x40 }
  - { offsetInCU: 0x2F0A2, offset: 0x2F0A2, size: 0x8, addend: 0x0, symName: __ZNSt3__111char_traitsIcE6assignB8ue170006EPcmc, symObjAddr: 0x18E4C, symBinAddr: 0x10001B2D8, symSize: 0x44 }
  - { offsetInCU: 0x2F0E1, offset: 0x2F0E1, size: 0x8, addend: 0x0, symName: __ZNSt3__112basic_stringIcNS_11char_traitsIcEENS_9allocatorIcEEEC2B8ue170006ENS_24__uninitialized_size_tagEmRKS4_, symObjAddr: 0x18E90, symBinAddr: 0x10001B31C, symSize: 0x110 }
  - { offsetInCU: 0x2F160, offset: 0x2F160, size: 0x8, addend: 0x0, symName: __ZNSt3__117__compressed_pairINS_12basic_stringIcNS_11char_traitsIcEENS_9allocatorIcEEE5__repES5_EC1B8ue170006INS_18__default_init_tagERKS5_EEOT_OT0_, symObjAddr: 0x18FA0, symBinAddr: 0x10001B42C, symSize: 0x3C }
  - { offsetInCU: 0x2F1B8, offset: 0x2F1B8, size: 0x8, addend: 0x0, symName: __ZNKSt3__112basic_stringIcNS_11char_traitsIcEENS_9allocatorIcEEE20__throw_length_errorB8ue170006Ev, symObjAddr: 0x18FDC, symBinAddr: 0x10001B468, symSize: 0x1C }
  - { offsetInCU: 0x2F1DE, offset: 0x2F1DE, size: 0x8, addend: 0x0, symName: __ZNSt3__112basic_stringIcNS_11char_traitsIcEENS_9allocatorIcEEE13__fits_in_ssoB8ue170006Em, symObjAddr: 0x18FF8, symBinAddr: 0x10001B484, symSize: 0x20 }
  - { offsetInCU: 0x2F202, offset: 0x2F202, size: 0x8, addend: 0x0, symName: __ZNSt3__112basic_stringIcNS_11char_traitsIcEENS_9allocatorIcEEE11__recommendB8ue170006Em, symObjAddr: 0x19018, symBinAddr: 0x10001B4A4, symSize: 0x84 }
  - { offsetInCU: 0x2F235, offset: 0x2F235, size: 0x8, addend: 0x0, symName: __ZNSt3__116allocator_traitsINS_9allocatorIcEEE8allocateB8ue170006ERS2_m, symObjAddr: 0x1909C, symBinAddr: 0x10001B528, symSize: 0x2C }
  - { offsetInCU: 0x2F268, offset: 0x2F268, size: 0x8, addend: 0x0, symName: __ZNSt3__112basic_stringIcNS_11char_traitsIcEENS_9allocatorIcEEE7__allocB8ue170006Ev, symObjAddr: 0x190C8, symBinAddr: 0x10001B554, symSize: 0x24 }
  - { offsetInCU: 0x2F28E, offset: 0x2F28E, size: 0x8, addend: 0x0, symName: __ZNSt3__112basic_stringIcNS_11char_traitsIcEENS_9allocatorIcEEE16__begin_lifetimeB8ue170006EPcm, symObjAddr: 0x190EC, symBinAddr: 0x10001B578, symSize: 0x14 }
  - { offsetInCU: 0x2F2C1, offset: 0x2F2C1, size: 0x8, addend: 0x0, symName: __ZNSt3__112basic_stringIcNS_11char_traitsIcEENS_9allocatorIcEEE14__set_long_capB8ue170006Em, symObjAddr: 0x19100, symBinAddr: 0x10001B58C, symSize: 0x70 }
  - { offsetInCU: 0x2F2F6, offset: 0x2F2F6, size: 0x8, addend: 0x0, symName: __ZNSt3__112basic_stringIcNS_11char_traitsIcEENS_9allocatorIcEEE18__set_long_pointerB8ue170006EPc, symObjAddr: 0x19170, symBinAddr: 0x10001B5FC, symSize: 0x38 }
  - { offsetInCU: 0x2F32B, offset: 0x2F32B, size: 0x8, addend: 0x0, symName: __ZNSt3__117__compressed_pairINS_12basic_stringIcNS_11char_traitsIcEENS_9allocatorIcEEE5__repES5_EC2B8ue170006INS_18__default_init_tagERKS5_EEOT_OT0_, symObjAddr: 0x191A8, symBinAddr: 0x10001B634, symSize: 0x40 }
  - { offsetInCU: 0x2F383, offset: 0x2F383, size: 0x8, addend: 0x0, symName: __ZNSt3__122__compressed_pair_elemINS_9allocatorIcEELi1ELb1EEC2B8ue170006IRKS2_vEEOT_, symObjAddr: 0x191E8, symBinAddr: 0x10001B674, symSize: 0x18 }
  - { offsetInCU: 0x2F3C5, offset: 0x2F3C5, size: 0x8, addend: 0x0, symName: __ZNSt3__112basic_stringIcNS_11char_traitsIcEENS_9allocatorIcEEE10__align_itB8ue170006ILm16EEEmm, symObjAddr: 0x19200, symBinAddr: 0x10001B68C, symSize: 0x1C }
  - { offsetInCU: 0x2F3F3, offset: 0x2F3F3, size: 0x8, addend: 0x0, symName: __ZNSt3__117__compressed_pairINS_12basic_stringIcNS_11char_traitsIcEENS_9allocatorIcEEE5__repES5_E6secondB8ue170006Ev, symObjAddr: 0x1921C, symBinAddr: 0x10001B6A8, symSize: 0x24 }
  - { offsetInCU: 0x2F423, offset: 0x2F423, size: 0x8, addend: 0x0, symName: __ZZN3bagI4trieINSt3__112basic_stringIcNS1_11char_traitsIcEENS1_9allocatorIcEEEEEE7reorderEvENKUlPKS8_SB_E_clESB_SB_, symObjAddr: 0x199AC, symBinAddr: 0x10001BE38, symSize: 0x48 }
  - { offsetInCU: 0x2F469, offset: 0x2F469, size: 0x8, addend: 0x0, symName: __ZNSt3__18_IterOpsINS_17_ClassicAlgPolicyEE9iter_swapB8ue170006IRPP4trieINS_12basic_stringIcNS_11char_traitsIcEENS_9allocatorIcEEEEESE_EEvOT_OT0_, symObjAddr: 0x199F4, symBinAddr: 0x10001BE80, symSize: 0x34 }
  - { offsetInCU: 0x2F4AC, offset: 0x2F4AC, size: 0x8, addend: 0x0, symName: __ZNSt3__18_IterOpsINS_17_ClassicAlgPolicyEE9iter_swapB8ue170006IRPP4trieINS_12basic_stringIcNS_11char_traitsIcEENS_9allocatorIcEEEEESD_EEvOT_OT0_, symObjAddr: 0x19F7C, symBinAddr: 0x10001C408, symSize: 0x34 }
  - { offsetInCU: 0x2F4EF, offset: 0x2F4EF, size: 0x8, addend: 0x0, symName: __ZNSt3__18_IterOpsINS_17_ClassicAlgPolicyEE11__iter_moveB8ue170006IRPP4trieINS_12basic_stringIcNS_11char_traitsIcEENS_9allocatorIcEEEEEEENS_9enable_ifIXsr12is_referenceIDTdeclsr3stdE7declvalIRT_EEEEE5valueEDTclsr3stdE4movedeclsr3stdE7declvalISH_EEEEE4typeEOSG_, symObjAddr: 0x1ACA0, symBinAddr: 0x10001D12C, symSize: 0x28 }
  - { offsetInCU: 0x2F51B, offset: 0x2F51B, size: 0x8, addend: 0x0, symName: __ZNSt3__18_IterOpsINS_17_ClassicAlgPolicyEE25__validate_iter_referenceB8ue170006IRPP4trieINS_12basic_stringIcNS_11char_traitsIcEENS_9allocatorIcEEEEEEEvv, symObjAddr: 0x1ACC8, symBinAddr: 0x10001D154, symSize: 0x4 }
  - { offsetInCU: 0x2F539, offset: 0x2F539, size: 0x8, addend: 0x0, symName: __ZNSt3__18_IterOpsINS_17_ClassicAlgPolicyEE4nextB8ue170006IPP4trieINS_12basic_stringIcNS_11char_traitsIcEENS_9allocatorIcEEEEEEET_SE_SE_, symObjAddr: 0x1ACCC, symBinAddr: 0x10001D158, symSize: 0x18 }
  - { offsetInCU: 0x2F56F, offset: 0x2F56F, size: 0x8, addend: 0x0, symName: __ZNSt3__18_IterOpsINS_17_ClassicAlgPolicyEE9iter_swapB8ue170006IPP4trieINS_12basic_stringIcNS_11char_traitsIcEENS_9allocatorIcEEEEESD_EEvOT_OT0_, symObjAddr: 0x1BC64, symBinAddr: 0x10001E0F0, symSize: 0x34 }
  - { offsetInCU: 0x2F5CE, offset: 0x2F5CE, size: 0x8, addend: 0x0, symName: __ZNSt3__14pairIPP4trieINS_12basic_stringIcNS_11char_traitsIcEENS_9allocatorIcEEEEEbEC1B8ue170006IRSA_RbLPv0EEEOT_OT0_, symObjAddr: 0x1BCB4, symBinAddr: 0x10001E140, symSize: 0x3C }
  - { offsetInCU: 0x2F62C, offset: 0x2F62C, size: 0x8, addend: 0x0, symName: __ZNSt3__14pairIPP4trieINS_12basic_stringIcNS_11char_traitsIcEENS_9allocatorIcEEEEEbEC2B8ue170006IRSA_RbLPv0EEEOT_OT0_, symObjAddr: 0x1BCF0, symBinAddr: 0x10001E17C, symSize: 0x38 }
  - { offsetInCU: 0x2F68A, offset: 0x2F68A, size: 0x8, addend: 0x0, symName: __ZNSt3__118__unwrap_iter_implINS_11__wrap_iterIPP4trieINS_12basic_stringIcNS_11char_traitsIcEENS_9allocatorIcEEEEEEELb1EE8__unwrapB8ue170006ESC_, symObjAddr: 0x1BD28, symBinAddr: 0x10001E1B4, symSize: 0x28 }
  - { offsetInCU: 0x2F6B2, offset: 0x2F6B2, size: 0x8, addend: 0x0, symName: __ZNSt3__119__to_address_helperINS_11__wrap_iterIPP4trieINS_12basic_stringIcNS_11char_traitsIcEENS_9allocatorIcEEEEEEEvE6__callB8ue170006ERKSC_, symObjAddr: 0x1BD74, symBinAddr: 0x10001E200, symSize: 0x30 }
  - { offsetInCU: 0x2F6D5, offset: 0x2F6D5, size: 0x8, addend: 0x0, symName: __ZNSt3__114pointer_traitsINS_11__wrap_iterIPP4trieINS_12basic_stringIcNS_11char_traitsIcEENS_9allocatorIcEEEEEEEE10to_addressB8ue170006ESC_, symObjAddr: 0x1BDA4, symBinAddr: 0x10001E230, symSize: 0x2C }
  - { offsetInCU: 0x2F6F8, offset: 0x2F6F8, size: 0x8, addend: 0x0, symName: __ZNSt3__16vectorIP4trieINS_12basic_stringIcNS_11char_traitsIcEENS_9allocatorIcEEEEENS5_IS9_EEEC1ERKSB_, symObjAddr: 0x1BDD0, symBinAddr: 0x10001E25C, symSize: 0x34 }
  - { offsetInCU: 0x2F733, offset: 0x2F733, size: 0x8, addend: 0x0, symName: __ZN3bagI4trieINSt3__112basic_stringIcNS1_11char_traitsIcEENS1_9allocatorIcEEEEEE17children_iteratorC1EPS8_NS1_6vectorISB_NS5_ISB_EEEE, symObjAddr: 0x1BE04, symBinAddr: 0x10001E290, symSize: 0x3C }
  - { offsetInCU: 0x2F77A, offset: 0x2F77A, size: 0x8, addend: 0x0, symName: __ZNSt3__16vectorIP4trieINS_12basic_stringIcNS_11char_traitsIcEENS_9allocatorIcEEEEENS5_IS9_EEEC2ERKSB_, symObjAddr: 0x1BE40, symBinAddr: 0x10001E2CC, symSize: 0x94 }
  - { offsetInCU: 0x2F7B5, offset: 0x2F7B5, size: 0x8, addend: 0x0, symName: __ZNSt3__116allocator_traitsINS_9allocatorIP4trieINS_12basic_stringIcNS_11char_traitsIcEENS1_IcEEEEEEEE37select_on_container_copy_constructionB8ue170006ISA_vvEESA_RKSA_, symObjAddr: 0x1BED4, symBinAddr: 0x10001E360, symSize: 0x10 }
  - { offsetInCU: 0x2F7EA, offset: 0x2F7EA, size: 0x8, addend: 0x0, symName: __ZNSt3__117__compressed_pairIPP4trieINS_12basic_stringIcNS_11char_traitsIcEENS_9allocatorIcEEEEENS5_IS9_EEEC1B8ue170006IDnSB_EEOT_OT0_, symObjAddr: 0x1BEE4, symBinAddr: 0x10001E370, symSize: 0x3C }
  - { offsetInCU: 0x2F842, offset: 0x2F842, size: 0x8, addend: 0x0, symName: __ZNSt3__16vectorIP4trieINS_12basic_stringIcNS_11char_traitsIcEENS_9allocatorIcEEEEENS5_IS9_EEE16__init_with_sizeB8ue170006IPS9_SD_EEvT_T0_m, symObjAddr: 0x1BF20, symBinAddr: 0x10001E3AC, symSize: 0xB8 }
  - { offsetInCU: 0x2F8B6, offset: 0x2F8B6, size: 0x8, addend: 0x0, symName: __ZNSt3__117__compressed_pairIPP4trieINS_12basic_stringIcNS_11char_traitsIcEENS_9allocatorIcEEEEENS5_IS9_EEEC2B8ue170006IDnSB_EEOT_OT0_, symObjAddr: 0x1BFD8, symBinAddr: 0x10001E464, symSize: 0x44 }
  - { offsetInCU: 0x2F90E, offset: 0x2F90E, size: 0x8, addend: 0x0, symName: __ZNSt3__122__compressed_pair_elemINS_9allocatorIP4trieINS_12basic_stringIcNS_11char_traitsIcEENS1_IcEEEEEEELi1ELb1EEC2B8ue170006ISA_vEEOT_, symObjAddr: 0x1C01C, symBinAddr: 0x10001E4A8, symSize: 0x18 }
  - { offsetInCU: 0x2F950, offset: 0x2F950, size: 0x8, addend: 0x0, symName: __ZNSt3__16vectorIP4trieINS_12basic_stringIcNS_11char_traitsIcEENS_9allocatorIcEEEEENS5_IS9_EEE11__vallocateB8ue170006Em, symObjAddr: 0x1C074, symBinAddr: 0x10001E500, symSize: 0xAC }
  - { offsetInCU: 0x2F994, offset: 0x2F994, size: 0x8, addend: 0x0, symName: __ZNSt3__16vectorIP4trieINS_12basic_stringIcNS_11char_traitsIcEENS_9allocatorIcEEEEENS5_IS9_EEE18__construct_at_endIPS9_SD_EEvT_T0_m, symObjAddr: 0x1C120, symBinAddr: 0x10001E5AC, symSize: 0x8C }
  - { offsetInCU: 0x2FA0A, offset: 0x2FA0A, size: 0x8, addend: 0x0, symName: __ZNSt3__128__exception_guard_exceptionsINS_6vectorIP4trieINS_12basic_stringIcNS_11char_traitsIcEENS_9allocatorIcEEEEENS6_ISA_EEE16__destroy_vectorEE10__completeB8ue170006Ev, symObjAddr: 0x1C1AC, symBinAddr: 0x10001E638, symSize: 0x1C }
  - { offsetInCU: 0x2FA30, offset: 0x2FA30, size: 0x8, addend: 0x0, symName: __ZNSt3__128__exception_guard_exceptionsINS_6vectorIP4trieINS_12basic_stringIcNS_11char_traitsIcEENS_9allocatorIcEEEEENS6_ISA_EEE16__destroy_vectorEED1B8ue170006Ev, symObjAddr: 0x1C1C8, symBinAddr: 0x10001E654, symSize: 0x2C }
  - { offsetInCU: 0x2FA5A, offset: 0x2FA5A, size: 0x8, addend: 0x0, symName: __ZNSt3__128__exception_guard_exceptionsINS_6vectorIP4trieINS_12basic_stringIcNS_11char_traitsIcEENS_9allocatorIcEEEEENS6_ISA_EEE16__destroy_vectorEEC1B8ue170006ESD_, symObjAddr: 0x1C1F4, symBinAddr: 0x10001E680, symSize: 0x34 }
  - { offsetInCU: 0x2FA92, offset: 0x2FA92, size: 0x8, addend: 0x0, symName: __ZNSt3__128__exception_guard_exceptionsINS_6vectorIP4trieINS_12basic_stringIcNS_11char_traitsIcEENS_9allocatorIcEEEEENS6_ISA_EEE16__destroy_vectorEEC2B8ue170006ESD_, symObjAddr: 0x1C228, symBinAddr: 0x10001E6B4, symSize: 0x24 }
  - { offsetInCU: 0x2FACA, offset: 0x2FACA, size: 0x8, addend: 0x0, symName: __ZNKSt3__114__copy_trivialclB8ue170006IP4trieINS_12basic_stringIcNS_11char_traitsIcEENS_9allocatorIcEEEEESA_Li0EEENS_4pairIPT_PT0_EESD_SD_SF_, symObjAddr: 0x1C480, symBinAddr: 0x10001E90C, symSize: 0x48 }
  - { offsetInCU: 0x2FB32, offset: 0x2FB32, size: 0x8, addend: 0x0, symName: __ZNSt3__128__exception_guard_exceptionsINS_6vectorIP4trieINS_12basic_stringIcNS_11char_traitsIcEENS_9allocatorIcEEEEENS6_ISA_EEE16__destroy_vectorEED2B8ue170006Ev, symObjAddr: 0x1C4C8, symBinAddr: 0x10001E954, symSize: 0x48 }
  - { offsetInCU: 0x2FB5C, offset: 0x2FB5C, size: 0x8, addend: 0x0, symName: __ZN3bagI4trieINSt3__112basic_stringIcNS1_11char_traitsIcEENS1_9allocatorIcEEEEEE17children_iteratorC2EPS8_NS1_6vectorISB_NS5_ISB_EEEE, symObjAddr: 0x1C510, symBinAddr: 0x10001E99C, symSize: 0x80 }
  - { offsetInCU: 0x2FBA3, offset: 0x2FBA3, size: 0x8, addend: 0x0, symName: __ZNSt3__16vectorIP4trieINS_12basic_stringIcNS_11char_traitsIcEENS_9allocatorIcEEEEENS5_IS9_EEEaSB8ue170006ERKSB_, symObjAddr: 0x1C590, symBinAddr: 0x10001EA1C, symSize: 0x68 }
  - { offsetInCU: 0x2FBDA, offset: 0x2FBDA, size: 0x8, addend: 0x0, symName: __ZNSt3__16vectorIP4trieINS_12basic_stringIcNS_11char_traitsIcEENS_9allocatorIcEEEEENS5_IS9_EEE19__copy_assign_allocB8ue170006ERKSB_, symObjAddr: 0x1C5F8, symBinAddr: 0x10001EA84, symSize: 0x2C }
  - { offsetInCU: 0x2FC0F, offset: 0x2FC0F, size: 0x8, addend: 0x0, symName: __ZNSt3__16vectorIP4trieINS_12basic_stringIcNS_11char_traitsIcEENS_9allocatorIcEEEEENS5_IS9_EEE6assignIPS9_Li0EEEvT_SE_, symObjAddr: 0x1C624, symBinAddr: 0x10001EAB0, symSize: 0x5C }
  - { offsetInCU: 0x2FC64, offset: 0x2FC64, size: 0x8, addend: 0x0, symName: __ZNSt3__16vectorIP4trieINS_12basic_stringIcNS_11char_traitsIcEENS_9allocatorIcEEEEENS5_IS9_EEE19__copy_assign_allocB8ue170006ERKSB_NS_17integral_constantIbLb0EEE, symObjAddr: 0x1C680, symBinAddr: 0x10001EB0C, symSize: 0x14 }
  - { offsetInCU: 0x2FCA0, offset: 0x2FCA0, size: 0x8, addend: 0x0, symName: __ZNSt3__16vectorIP4trieINS_12basic_stringIcNS_11char_traitsIcEENS_9allocatorIcEEEEENS5_IS9_EEE18__assign_with_sizeB8ue170006IPS9_SD_EEvT_T0_l, symObjAddr: 0x1C694, symBinAddr: 0x10001EB20, symSize: 0x164 }
  - { offsetInCU: 0x2FD50, offset: 0x2FD50, size: 0x8, addend: 0x0, symName: __ZNSt3__16vectorIP4trieINS_12basic_stringIcNS_11char_traitsIcEENS_9allocatorIcEEEEENS5_IS9_EEE17__destruct_at_endB8ue170006EPS9_, symObjAddr: 0x1C858, symBinAddr: 0x10001ECE4, symSize: 0x4C }
  - { offsetInCU: 0x2FD94, offset: 0x2FD94, size: 0x8, addend: 0x0, symName: __ZNSt3__16vectorIP4trieINS_12basic_stringIcNS_11char_traitsIcEENS_9allocatorIcEEEEENS5_IS9_EEE13__vdeallocateEv, symObjAddr: 0x1C8A4, symBinAddr: 0x10001ED30, symSize: 0x94 }
  - { offsetInCU: 0x2FDBC, offset: 0x2FDBC, size: 0x8, addend: 0x0, symName: __ZNK3bagI4trieINSt3__112basic_stringIcNS1_11char_traitsIcEENS1_9allocatorIcEEEEEE17children_iteratoreqERKSA_, symObjAddr: 0x1C9C0, symBinAddr: 0x10001EE4C, symSize: 0x64 }
  - { offsetInCU: 0x2FDF0, offset: 0x2FDF0, size: 0x8, addend: 0x0, symName: __ZN3bagI4trieINSt3__112basic_stringIcNS1_11char_traitsIcEENS1_9allocatorIcEEEEEE17children_iteratorD2Ev, symObjAddr: 0x1CA24, symBinAddr: 0x10001EEB0, symSize: 0x30 }
  - { offsetInCU: 0x2FE1C, offset: 0x2FE1C, size: 0x8, addend: 0x0, symName: __ZN3bagI4trieINSt3__112basic_stringIcNS1_11char_traitsIcEENS1_9allocatorIcEEEEEE17children_iteratorC1ERKSA_, symObjAddr: 0x1CA54, symBinAddr: 0x10001EEE0, symSize: 0x34 }
  - { offsetInCU: 0x2FE51, offset: 0x2FE51, size: 0x8, addend: 0x0, symName: __ZN3bagI4trieINSt3__112basic_stringIcNS1_11char_traitsIcEENS1_9allocatorIcEEEEEE17children_iteratorC2ERKSA_, symObjAddr: 0x1CA88, symBinAddr: 0x10001EF14, symSize: 0x48 }
  - { offsetInCU: 0x2FE86, offset: 0x2FE86, size: 0x8, addend: 0x0, symName: __ZNK3bagI4trieINSt3__112basic_stringIcNS1_11char_traitsIcEENS1_9allocatorIcEEEEEEeqERKS9_, symObjAddr: 0x1CAD0, symBinAddr: 0x10001EF5C, symSize: 0x214 }
  - { offsetInCU: 0x2FED6, offset: 0x2FED6, size: 0x8, addend: 0x0, symName: __ZNK4trieINSt3__112basic_stringIcNS0_11char_traitsIcEENS0_9allocatorIcEEEEE10get_weightEv, symObjAddr: 0x1CCE4, symBinAddr: 0x10001F170, symSize: 0x5C }
  - { offsetInCU: 0x2FEFE, offset: 0x2FEFE, size: 0x8, addend: 0x0, symName: __ZNK3bagI4trieINSt3__112basic_stringIcNS1_11char_traitsIcEENS1_9allocatorIcEEEEEEneERKS9_, symObjAddr: 0x1CD74, symBinAddr: 0x10001F200, symSize: 0x34 }
  - { offsetInCU: 0x2FF32, offset: 0x2FF32, size: 0x8, addend: 0x0, symName: __ZN4trieIiEC1Ev, symObjAddr: 0x1CDA8, symBinAddr: 0x10001F234, symSize: 0x2C }
  - { offsetInCU: 0x2FF5D, offset: 0x2FF5D, size: 0x8, addend: 0x0, symName: __ZrsIiERNSt3__113basic_istreamIcNS0_11char_traitsIcEEEES5_R4trieIT_E, symObjAddr: 0x1CDD4, symBinAddr: 0x10001F260, symSize: 0x80 }
  - { offsetInCU: 0x2FFB3, offset: 0x2FFB3, size: 0x8, addend: 0x0, symName: __ZN4trieIiEC2Ev, symObjAddr: 0x1CE54, symBinAddr: 0x10001F2E0, symSize: 0x40 }
  - { offsetInCU: 0x2FFDF, offset: 0x2FFDF, size: 0x8, addend: 0x0, symName: __ZN3bagI4trieIiEEC1Ev, symObjAddr: 0x1CE94, symBinAddr: 0x10001F320, symSize: 0x2C }
  - { offsetInCU: 0x30009, offset: 0x30009, size: 0x8, addend: 0x0, symName: __ZN3bagI4trieIiEEC2Ev, symObjAddr: 0x1CEC0, symBinAddr: 0x10001F34C, symSize: 0x2C }
  - { offsetInCU: 0x30033, offset: 0x30033, size: 0x8, addend: 0x0, symName: __ZNSt3__16vectorIP4trieIiENS_9allocatorIS3_EEEC1B8ue170006Ev, symObjAddr: 0x1CEEC, symBinAddr: 0x10001F378, symSize: 0x2C }
  - { offsetInCU: 0x3005D, offset: 0x3005D, size: 0x8, addend: 0x0, symName: __ZNSt3__16vectorIP4trieIiENS_9allocatorIS3_EEEC2B8ue170006Ev, symObjAddr: 0x1CF18, symBinAddr: 0x10001F3A4, symSize: 0x4C }
  - { offsetInCU: 0x30087, offset: 0x30087, size: 0x8, addend: 0x0, symName: __ZNSt3__117__compressed_pairIPP4trieIiENS_9allocatorIS3_EEEC1B8ue170006IDnNS_18__default_init_tagEEEOT_OT0_, symObjAddr: 0x1CF64, symBinAddr: 0x10001F3F0, symSize: 0x3C }
  - { offsetInCU: 0x300DF, offset: 0x300DF, size: 0x8, addend: 0x0, symName: __ZNSt3__117__compressed_pairIPP4trieIiENS_9allocatorIS3_EEEC2B8ue170006IDnNS_18__default_init_tagEEEOT_OT0_, symObjAddr: 0x1CFA0, symBinAddr: 0x10001F42C, symSize: 0x40 }
  - { offsetInCU: 0x30137, offset: 0x30137, size: 0x8, addend: 0x0, symName: __ZNSt3__122__compressed_pair_elemIPP4trieIiELi0ELb0EEC2B8ue170006IDnvEEOT_, symObjAddr: 0x1CFE0, symBinAddr: 0x10001F46C, symSize: 0x1C }
  - { offsetInCU: 0x30179, offset: 0x30179, size: 0x8, addend: 0x0, symName: __ZNSt3__122__compressed_pair_elemINS_9allocatorIP4trieIiEEELi1ELb1EEC2B8ue170006ENS_18__default_init_tagE, symObjAddr: 0x1CFFC, symBinAddr: 0x10001F488, symSize: 0x2C }
  - { offsetInCU: 0x301AD, offset: 0x301AD, size: 0x8, addend: 0x0, symName: __ZNSt3__19allocatorIP4trieIiEEC2B8ue170006Ev, symObjAddr: 0x1D028, symBinAddr: 0x10001F4B4, symSize: 0x2C }
  - { offsetInCU: 0x301D7, offset: 0x301D7, size: 0x8, addend: 0x0, symName: __ZNSt3__116__non_trivial_ifILb1ENS_9allocatorIP4trieIiEEEEC2B8ue170006Ev, symObjAddr: 0x1D054, symBinAddr: 0x10001F4E0, symSize: 0x14 }
  - { offsetInCU: 0x30200, offset: 0x30200, size: 0x8, addend: 0x0, symName: __Z1SIiEvRNSt3__113basic_istreamIcNS0_11char_traitsIcEEEER4trieIT_E, symObjAddr: 0x1D068, symBinAddr: 0x10001F4F4, symSize: 0x1C0 }
  - { offsetInCU: 0x3027C, offset: 0x3027C, size: 0x8, addend: 0x0, symName: __ZN4trieIiEaSERKS0_, symObjAddr: 0x1D228, symBinAddr: 0x10001F6B4, symSize: 0x54 }
  - { offsetInCU: 0x302B1, offset: 0x302B1, size: 0x8, addend: 0x0, symName: __Z1FIiEvRNSt3__113basic_istreamIcNS0_11char_traitsIcEEEER4trieIT_E, symObjAddr: 0x1D27C, symBinAddr: 0x10001F708, symSize: 0x2DC }
  - { offsetInCU: 0x30300, offset: 0x30300, size: 0x8, addend: 0x0, symName: __ZN4trieIiE10set_weightEd, symObjAddr: 0x1D558, symBinAddr: 0x10001F9E4, symSize: 0x20 }
  - { offsetInCU: 0x30335, offset: 0x30335, size: 0x8, addend: 0x0, symName: __Z1HIiEvRNSt3__113basic_istreamIcNS0_11char_traitsIcEEEER4trieIT_E, symObjAddr: 0x1D578, symBinAddr: 0x10001FA04, symSize: 0x3C4 }
  - { offsetInCU: 0x30383, offset: 0x30383, size: 0x8, addend: 0x0, symName: __Z1RIiEvRNSt3__113basic_istreamIcNS0_11char_traitsIcEEEER4trieIT_E, symObjAddr: 0x1D93C, symBinAddr: 0x10001FDC8, symSize: 0x1B8 }
  - { offsetInCU: 0x303ED, offset: 0x303ED, size: 0x8, addend: 0x0, symName: __ZN4trieIiE10set_parentEPS0_, symObjAddr: 0x1DAF4, symBinAddr: 0x10001FF80, symSize: 0x20 }
  - { offsetInCU: 0x30423, offset: 0x30423, size: 0x8, addend: 0x0, symName: __ZN4trieIiE9set_labelEPi, symObjAddr: 0x1DB14, symBinAddr: 0x10001FFA0, symSize: 0xAC }
  - { offsetInCU: 0x30467, offset: 0x30467, size: 0x8, addend: 0x0, symName: __ZN4trieIiE9add_childERKS0_, symObjAddr: 0x1DBC0, symBinAddr: 0x10002004C, symSize: 0x2B4 }
  - { offsetInCU: 0x3049D, offset: 0x3049D, size: 0x8, addend: 0x0, symName: __ZNK4trieIiE9get_labelEv, symObjAddr: 0x1DE74, symBinAddr: 0x100020300, symSize: 0x18 }
  - { offsetInCU: 0x304C5, offset: 0x304C5, size: 0x8, addend: 0x0, symName: __ZNK4trieIiE10get_parentEv, symObjAddr: 0x1DE8C, symBinAddr: 0x100020318, symSize: 0x18 }
  - { offsetInCU: 0x304ED, offset: 0x304ED, size: 0x8, addend: 0x0, symName: __ZN3bagI4trieIiEE8hasLabelEPKi, symObjAddr: 0x1DEA4, symBinAddr: 0x100020330, symSize: 0xCC }
  - { offsetInCU: 0x3053D, offset: 0x3053D, size: 0x8, addend: 0x0, symName: __ZN3bagI4trieIiEE8addChildERKS1_, symObjAddr: 0x1DF70, symBinAddr: 0x1000203FC, symSize: 0x170 }
  - { offsetInCU: 0x3059B, offset: 0x3059B, size: 0x8, addend: 0x0, symName: __ZNKSt3__16vectorIP4trieIiENS_9allocatorIS3_EEE4sizeB8ue170006Ev, symObjAddr: 0x1E0E0, symBinAddr: 0x10002056C, symSize: 0x28 }
  - { offsetInCU: 0x305C1, offset: 0x305C1, size: 0x8, addend: 0x0, symName: __ZNSt3__16vectorIP4trieIiENS_9allocatorIS3_EEEixB8ue170006Em, symObjAddr: 0x1E108, symBinAddr: 0x100020594, symSize: 0x24 }
  - { offsetInCU: 0x305F8, offset: 0x305F8, size: 0x8, addend: 0x0, symName: __ZN4trieIiE9get_labelEv, symObjAddr: 0x1E12C, symBinAddr: 0x1000205B8, symSize: 0x18 }
  - { offsetInCU: 0x30620, offset: 0x30620, size: 0x8, addend: 0x0, symName: __ZN4trieIiEC1ERKS0_, symObjAddr: 0x1E144, symBinAddr: 0x1000205D0, symSize: 0x34 }
  - { offsetInCU: 0x3065A, offset: 0x3065A, size: 0x8, addend: 0x0, symName: __ZNSt3__16vectorIP4trieIiENS_9allocatorIS3_EEE9push_backB8ue170006ERKS3_, symObjAddr: 0x1E178, symBinAddr: 0x100020604, symSize: 0x6C }
  - { offsetInCU: 0x30691, offset: 0x30691, size: 0x8, addend: 0x0, symName: __ZNSt3__16vectorIP4trieIiENS_9allocatorIS3_EEE6insertENS_11__wrap_iterIPKS3_EERS8_, symObjAddr: 0x1E1E4, symBinAddr: 0x100020670, symSize: 0x1FC }
  - { offsetInCU: 0x30728, offset: 0x30728, size: 0x8, addend: 0x0, symName: __ZNSt3__16vectorIP4trieIiENS_9allocatorIS3_EEE5beginB8ue170006Ev, symObjAddr: 0x1E3E0, symBinAddr: 0x10002086C, symSize: 0x30 }
  - { offsetInCU: 0x30750, offset: 0x30750, size: 0x8, addend: 0x0, symName: __ZNKSt3__111__wrap_iterIPP4trieIiEEplB8ue170006El, symObjAddr: 0x1E410, symBinAddr: 0x10002089C, symSize: 0x3C }
  - { offsetInCU: 0x30798, offset: 0x30798, size: 0x8, addend: 0x0, symName: __ZNSt3__111__wrap_iterIPKP4trieIiEEC1B8ue170006IPS3_EERKNS0_IT_EEPNS_9enable_ifIXsr14is_convertibleIS9_S5_EE5valueEvE4typeE, symObjAddr: 0x1E44C, symBinAddr: 0x1000208D8, symSize: 0x3C }
  - { offsetInCU: 0x307E3, offset: 0x307E3, size: 0x8, addend: 0x0, symName: __ZN4trieIiEC2ERKS0_, symObjAddr: 0x1E488, symBinAddr: 0x100020914, symSize: 0x100 }
  - { offsetInCU: 0x30831, offset: 0x30831, size: 0x8, addend: 0x0, symName: __ZN3bagI4trieIiEEaSERKS2_, symObjAddr: 0x1E588, symBinAddr: 0x100020A14, symSize: 0x158 }
  - { offsetInCU: 0x308A9, offset: 0x308A9, size: 0x8, addend: 0x0, symName: __ZN3bagI4trieIiEE12setAllParentEPS1_, symObjAddr: 0x1E6E0, symBinAddr: 0x100020B6C, symSize: 0x84 }
  - { offsetInCU: 0x308F9, offset: 0x308F9, size: 0x8, addend: 0x0, symName: __ZN3bagI4trieIiEED1Ev, symObjAddr: 0x1E764, symBinAddr: 0x100020BF0, symSize: 0x2C }
  - { offsetInCU: 0x30923, offset: 0x30923, size: 0x8, addend: 0x0, symName: __ZNSt3__16vectorIP4trieIiENS_9allocatorIS3_EEE5clearB8ue170006Ev, symObjAddr: 0x1E790, symBinAddr: 0x100020C1C, symSize: 0x44 }
  - { offsetInCU: 0x30958, offset: 0x30958, size: 0x8, addend: 0x0, symName: __ZNKSt3__16vectorIP4trieIiENS_9allocatorIS3_EEEixB8ue170006Em, symObjAddr: 0x1E7D4, symBinAddr: 0x100020C60, symSize: 0x24 }
  - { offsetInCU: 0x3098F, offset: 0x3098F, size: 0x8, addend: 0x0, symName: __ZNSt3__16vectorIP4trieIiENS_9allocatorIS3_EEE7__clearB8ue170006Ev, symObjAddr: 0x1E7F8, symBinAddr: 0x100020C84, symSize: 0x28 }
  - { offsetInCU: 0x309B5, offset: 0x309B5, size: 0x8, addend: 0x0, symName: __ZNKSt3__16vectorIP4trieIiENS_9allocatorIS3_EEE17__annotate_shrinkB8ue170006Em, symObjAddr: 0x1E820, symBinAddr: 0x100020CAC, symSize: 0xB4 }
  - { offsetInCU: 0x309EA, offset: 0x309EA, size: 0x8, addend: 0x0, symName: __ZNSt3__16vectorIP4trieIiENS_9allocatorIS3_EEE22__base_destruct_at_endB8ue170006EPS3_, symObjAddr: 0x1E8D4, symBinAddr: 0x100020D60, symSize: 0x8C }
  - { offsetInCU: 0x30A2E, offset: 0x30A2E, size: 0x8, addend: 0x0, symName: __ZNSt3__116allocator_traitsINS_9allocatorIP4trieIiEEEE7destroyB8ue170006IS4_vEEvRS5_PT_, symObjAddr: 0x1E960, symBinAddr: 0x100020DEC, symSize: 0x2C }
  - { offsetInCU: 0x30A6B, offset: 0x30A6B, size: 0x8, addend: 0x0, symName: __ZNSt3__16vectorIP4trieIiENS_9allocatorIS3_EEE7__allocB8ue170006Ev, symObjAddr: 0x1E98C, symBinAddr: 0x100020E18, symSize: 0x28 }
  - { offsetInCU: 0x30A91, offset: 0x30A91, size: 0x8, addend: 0x0, symName: __ZNSt3__19allocatorIP4trieIiEE7destroyB8ue170006EPS3_, symObjAddr: 0x1E9C8, symBinAddr: 0x100020E54, symSize: 0x14 }
  - { offsetInCU: 0x30AC5, offset: 0x30AC5, size: 0x8, addend: 0x0, symName: __ZNSt3__117__compressed_pairIPP4trieIiENS_9allocatorIS3_EEE6secondB8ue170006Ev, symObjAddr: 0x1E9DC, symBinAddr: 0x100020E68, symSize: 0x24 }
  - { offsetInCU: 0x30AEB, offset: 0x30AEB, size: 0x8, addend: 0x0, symName: __ZNSt3__122__compressed_pair_elemINS_9allocatorIP4trieIiEEELi1ELb1EE5__getB8ue170006Ev, symObjAddr: 0x1EA00, symBinAddr: 0x100020E8C, symSize: 0x14 }
  - { offsetInCU: 0x30B11, offset: 0x30B11, size: 0x8, addend: 0x0, symName: __ZNKSt3__16vectorIP4trieIiENS_9allocatorIS3_EEE31__annotate_contiguous_containerB8ue170006EPKvS8_S8_S8_, symObjAddr: 0x1EA14, symBinAddr: 0x100020EA0, symSize: 0x20 }
  - { offsetInCU: 0x30B63, offset: 0x30B63, size: 0x8, addend: 0x0, symName: __ZNKSt3__16vectorIP4trieIiENS_9allocatorIS3_EEE4dataB8ue170006Ev, symObjAddr: 0x1EA34, symBinAddr: 0x100020EC0, symSize: 0x28 }
  - { offsetInCU: 0x30B89, offset: 0x30B89, size: 0x8, addend: 0x0, symName: __ZNKSt3__16vectorIP4trieIiENS_9allocatorIS3_EEE8capacityB8ue170006Ev, symObjAddr: 0x1EA5C, symBinAddr: 0x100020EE8, symSize: 0x40 }
  - { offsetInCU: 0x30BAF, offset: 0x30BAF, size: 0x8, addend: 0x0, symName: __ZNKSt3__16vectorIP4trieIiENS_9allocatorIS3_EEE9__end_capB8ue170006Ev, symObjAddr: 0x1EA9C, symBinAddr: 0x100020F28, symSize: 0x28 }
  - { offsetInCU: 0x30BD5, offset: 0x30BD5, size: 0x8, addend: 0x0, symName: __ZNKSt3__117__compressed_pairIPP4trieIiENS_9allocatorIS3_EEE5firstB8ue170006Ev, symObjAddr: 0x1EAC4, symBinAddr: 0x100020F50, symSize: 0x24 }
  - { offsetInCU: 0x30BFB, offset: 0x30BFB, size: 0x8, addend: 0x0, symName: __ZNKSt3__122__compressed_pair_elemIPP4trieIiELi0ELb0EE5__getB8ue170006Ev, symObjAddr: 0x1EAE8, symBinAddr: 0x100020F74, symSize: 0x14 }
  - { offsetInCU: 0x30C21, offset: 0x30C21, size: 0x8, addend: 0x0, symName: __ZN3bagI4trieIiEED2Ev, symObjAddr: 0x1EAFC, symBinAddr: 0x100020F88, symSize: 0xBC }
  - { offsetInCU: 0x30C9C, offset: 0x30C9C, size: 0x8, addend: 0x0, symName: __ZNSt3__16vectorIP4trieIiENS_9allocatorIS3_EEE3endB8ue170006Ev, symObjAddr: 0x1EBB8, symBinAddr: 0x100021044, symSize: 0x30 }
  - { offsetInCU: 0x30CC4, offset: 0x30CC4, size: 0x8, addend: 0x0, symName: __ZNKSt3__111__wrap_iterIPP4trieIiEEdeB8ue170006Ev, symObjAddr: 0x1EC1C, symBinAddr: 0x1000210A8, symSize: 0x18 }
  - { offsetInCU: 0x30CEA, offset: 0x30CEA, size: 0x8, addend: 0x0, symName: __ZNSt3__111__wrap_iterIPP4trieIiEEppB8ue170006Ev, symObjAddr: 0x1EC34, symBinAddr: 0x1000210C0, symSize: 0x20 }
  - { offsetInCU: 0x30D10, offset: 0x30D10, size: 0x8, addend: 0x0, symName: __ZNSt3__16vectorIP4trieIiENS_9allocatorIS3_EEED1B8ue170006Ev, symObjAddr: 0x1EC54, symBinAddr: 0x1000210E0, symSize: 0x2C }
  - { offsetInCU: 0x30D3A, offset: 0x30D3A, size: 0x8, addend: 0x0, symName: __ZNSt3__16vectorIP4trieIiENS_9allocatorIS3_EEE11__make_iterB8ue170006EPS3_, symObjAddr: 0x1EC80, symBinAddr: 0x10002110C, symSize: 0x30 }
  - { offsetInCU: 0x30D6F, offset: 0x30D6F, size: 0x8, addend: 0x0, symName: __ZNSt3__111__wrap_iterIPP4trieIiEEC1B8ue170006ES4_, symObjAddr: 0x1ECB0, symBinAddr: 0x10002113C, symSize: 0x34 }
  - { offsetInCU: 0x30DA7, offset: 0x30DA7, size: 0x8, addend: 0x0, symName: __ZNSt3__111__wrap_iterIPP4trieIiEEC2B8ue170006ES4_, symObjAddr: 0x1ECE4, symBinAddr: 0x100021170, symSize: 0x20 }
  - { offsetInCU: 0x30DDF, offset: 0x30DDF, size: 0x8, addend: 0x0, symName: __ZNKSt3__111__wrap_iterIPP4trieIiEE4baseB8ue170006Ev, symObjAddr: 0x1ED4C, symBinAddr: 0x1000211D8, symSize: 0x18 }
  - { offsetInCU: 0x30E05, offset: 0x30E05, size: 0x8, addend: 0x0, symName: __ZNSt3__16vectorIP4trieIiENS_9allocatorIS3_EEED2B8ue170006Ev, symObjAddr: 0x1ED64, symBinAddr: 0x1000211F0, symSize: 0x44 }
  - { offsetInCU: 0x30E2F, offset: 0x30E2F, size: 0x8, addend: 0x0, symName: __ZNSt3__16vectorIP4trieIiENS_9allocatorIS3_EEE16__destroy_vectorC1B8ue170006ERS6_, symObjAddr: 0x1EDA8, symBinAddr: 0x100021234, symSize: 0x34 }
  - { offsetInCU: 0x30E68, offset: 0x30E68, size: 0x8, addend: 0x0, symName: __ZNSt3__16vectorIP4trieIiENS_9allocatorIS3_EEE16__destroy_vectorclB8ue170006Ev, symObjAddr: 0x1EDDC, symBinAddr: 0x100021268, symSize: 0x90 }
  - { offsetInCU: 0x30E8E, offset: 0x30E8E, size: 0x8, addend: 0x0, symName: __ZNSt3__16vectorIP4trieIiENS_9allocatorIS3_EEE16__destroy_vectorC2B8ue170006ERS6_, symObjAddr: 0x1EE6C, symBinAddr: 0x1000212F8, symSize: 0x20 }
  - { offsetInCU: 0x30EC7, offset: 0x30EC7, size: 0x8, addend: 0x0, symName: __ZNKSt3__16vectorIP4trieIiENS_9allocatorIS3_EEE17__annotate_deleteB8ue170006Ev, symObjAddr: 0x1EE8C, symBinAddr: 0x100021318, symSize: 0xB8 }
  - { offsetInCU: 0x30EED, offset: 0x30EED, size: 0x8, addend: 0x0, symName: __ZNSt3__116allocator_traitsINS_9allocatorIP4trieIiEEEE10deallocateB8ue170006ERS5_PS4_m, symObjAddr: 0x1EF44, symBinAddr: 0x1000213D0, symSize: 0x34 }
  - { offsetInCU: 0x30F2F, offset: 0x30F2F, size: 0x8, addend: 0x0, symName: __ZNSt3__19allocatorIP4trieIiEE10deallocateB8ue170006EPS3_m, symObjAddr: 0x1EF78, symBinAddr: 0x100021404, symSize: 0x40 }
  - { offsetInCU: 0x30F71, offset: 0x30F71, size: 0x8, addend: 0x0, symName: __ZNSt3__16vectorIP4trieIiENS_9allocatorIS3_EEE9__end_capB8ue170006Ev, symObjAddr: 0x1EFB8, symBinAddr: 0x100021444, symSize: 0x28 }
  - { offsetInCU: 0x30F97, offset: 0x30F97, size: 0x8, addend: 0x0, symName: __ZNSt3__16vectorIP4trieIiENS_9allocatorIS3_EEE22__construct_one_at_endB8ue170006IJRKS3_EEEvDpOT_, symObjAddr: 0x1EFE0, symBinAddr: 0x10002146C, symSize: 0x90 }
  - { offsetInCU: 0x30FE6, offset: 0x30FE6, size: 0x8, addend: 0x0, symName: __ZNSt3__16vectorIP4trieIiENS_9allocatorIS3_EEE21__push_back_slow_pathIRKS3_EEvOT_, symObjAddr: 0x1F070, symBinAddr: 0x1000214FC, symSize: 0xD8 }
  - { offsetInCU: 0x31044, offset: 0x31044, size: 0x8, addend: 0x0, symName: __ZNSt3__117__compressed_pairIPP4trieIiENS_9allocatorIS3_EEE5firstB8ue170006Ev, symObjAddr: 0x1F148, symBinAddr: 0x1000215D4, symSize: 0x24 }
  - { offsetInCU: 0x3106A, offset: 0x3106A, size: 0x8, addend: 0x0, symName: __ZNSt3__122__compressed_pair_elemIPP4trieIiELi0ELb0EE5__getB8ue170006Ev, symObjAddr: 0x1F16C, symBinAddr: 0x1000215F8, symSize: 0x14 }
  - { offsetInCU: 0x310AB, offset: 0x310AB, size: 0x8, addend: 0x0, symName: __ZNSt3__16vectorIP4trieIiENS_9allocatorIS3_EEE21_ConstructTransactionC1B8ue170006ERS6_m, symObjAddr: 0x1F180, symBinAddr: 0x10002160C, symSize: 0x3C }
  - { offsetInCU: 0x310F3, offset: 0x310F3, size: 0x8, addend: 0x0, symName: __ZNSt3__116allocator_traitsINS_9allocatorIP4trieIiEEEE9constructB8ue170006IS4_JRKS4_EvEEvRS5_PT_DpOT0_, symObjAddr: 0x1F1BC, symBinAddr: 0x100021648, symSize: 0x34 }
  - { offsetInCU: 0x3114A, offset: 0x3114A, size: 0x8, addend: 0x0, symName: __ZNSt3__16vectorIP4trieIiENS_9allocatorIS3_EEE21_ConstructTransactionD1B8ue170006Ev, symObjAddr: 0x1F1F0, symBinAddr: 0x10002167C, symSize: 0x2C }
  - { offsetInCU: 0x31174, offset: 0x31174, size: 0x8, addend: 0x0, symName: __ZNSt3__16vectorIP4trieIiENS_9allocatorIS3_EEE21_ConstructTransactionC2B8ue170006ERS6_m, symObjAddr: 0x1F21C, symBinAddr: 0x1000216A8, symSize: 0x44 }
  - { offsetInCU: 0x311BC, offset: 0x311BC, size: 0x8, addend: 0x0, symName: __ZNSt3__19allocatorIP4trieIiEE9constructB8ue170006IS3_JRKS3_EEEvPT_DpOT0_, symObjAddr: 0x1F260, symBinAddr: 0x1000216EC, symSize: 0x28 }
  - { offsetInCU: 0x31212, offset: 0x31212, size: 0x8, addend: 0x0, symName: __ZNSt3__16vectorIP4trieIiENS_9allocatorIS3_EEE21_ConstructTransactionD2B8ue170006Ev, symObjAddr: 0x1F288, symBinAddr: 0x100021714, symSize: 0x20 }
  - { offsetInCU: 0x3123C, offset: 0x3123C, size: 0x8, addend: 0x0, symName: __ZNKSt3__16vectorIP4trieIiENS_9allocatorIS3_EEE11__recommendB8ue170006Em, symObjAddr: 0x1F2A8, symBinAddr: 0x100021734, symSize: 0xB4 }
  - { offsetInCU: 0x31291, offset: 0x31291, size: 0x8, addend: 0x0, symName: __ZNSt3__114__split_bufferIP4trieIiERNS_9allocatorIS3_EEEC1EmmS6_, symObjAddr: 0x1F35C, symBinAddr: 0x1000217E8, symSize: 0x44 }
  - { offsetInCU: 0x312E7, offset: 0x312E7, size: 0x8, addend: 0x0, symName: __ZNSt3__114__split_bufferIP4trieIiERNS_9allocatorIS3_EEED1Ev, symObjAddr: 0x1F4B0, symBinAddr: 0x10002193C, symSize: 0x2C }
  - { offsetInCU: 0x31313, offset: 0x31313, size: 0x8, addend: 0x0, symName: __ZNKSt3__16vectorIP4trieIiENS_9allocatorIS3_EEE8max_sizeEv, symObjAddr: 0x1F4DC, symBinAddr: 0x100021968, symSize: 0x60 }
  - { offsetInCU: 0x3133B, offset: 0x3133B, size: 0x8, addend: 0x0, symName: __ZNKSt3__16vectorIP4trieIiENS_9allocatorIS3_EEE20__throw_length_errorB8ue170006Ev, symObjAddr: 0x1F53C, symBinAddr: 0x1000219C8, symSize: 0x1C }
  - { offsetInCU: 0x3136C, offset: 0x3136C, size: 0x8, addend: 0x0, symName: __ZNSt3__116allocator_traitsINS_9allocatorIP4trieIiEEEE8max_sizeB8ue170006IS5_vEEmRKS5_, symObjAddr: 0x1F558, symBinAddr: 0x1000219E4, symSize: 0x24 }
  - { offsetInCU: 0x3139A, offset: 0x3139A, size: 0x8, addend: 0x0, symName: __ZNKSt3__16vectorIP4trieIiENS_9allocatorIS3_EEE7__allocB8ue170006Ev, symObjAddr: 0x1F57C, symBinAddr: 0x100021A08, symSize: 0x28 }
  - { offsetInCU: 0x313C0, offset: 0x313C0, size: 0x8, addend: 0x0, symName: __ZNKSt3__19allocatorIP4trieIiEE8max_sizeB8ue170006Ev, symObjAddr: 0x1F5A4, symBinAddr: 0x100021A30, symSize: 0x14 }
  - { offsetInCU: 0x313E6, offset: 0x313E6, size: 0x8, addend: 0x0, symName: __ZNKSt3__117__compressed_pairIPP4trieIiENS_9allocatorIS3_EEE6secondB8ue170006Ev, symObjAddr: 0x1F5B8, symBinAddr: 0x100021A44, symSize: 0x24 }
  - { offsetInCU: 0x3140C, offset: 0x3140C, size: 0x8, addend: 0x0, symName: __ZNKSt3__122__compressed_pair_elemINS_9allocatorIP4trieIiEEELi1ELb1EE5__getB8ue170006Ev, symObjAddr: 0x1F5DC, symBinAddr: 0x100021A68, symSize: 0x14 }
  - { offsetInCU: 0x31432, offset: 0x31432, size: 0x8, addend: 0x0, symName: __ZNSt3__114__split_bufferIP4trieIiERNS_9allocatorIS3_EEEC2EmmS6_, symObjAddr: 0x1F5F0, symBinAddr: 0x100021A7C, symSize: 0xD4 }
  - { offsetInCU: 0x314A5, offset: 0x314A5, size: 0x8, addend: 0x0, symName: __ZNSt3__117__compressed_pairIPP4trieIiERNS_9allocatorIS3_EEEC1B8ue170006IDnS7_EEOT_OT0_, symObjAddr: 0x1F6C4, symBinAddr: 0x100021B50, symSize: 0x3C }
  - { offsetInCU: 0x314FD, offset: 0x314FD, size: 0x8, addend: 0x0, symName: __ZNSt3__114__split_bufferIP4trieIiERNS_9allocatorIS3_EEE7__allocB8ue170006Ev, symObjAddr: 0x1F740, symBinAddr: 0x100021BCC, symSize: 0x28 }
  - { offsetInCU: 0x31523, offset: 0x31523, size: 0x8, addend: 0x0, symName: __ZNSt3__114__split_bufferIP4trieIiERNS_9allocatorIS3_EEE9__end_capB8ue170006Ev, symObjAddr: 0x1F768, symBinAddr: 0x100021BF4, symSize: 0x28 }
  - { offsetInCU: 0x31549, offset: 0x31549, size: 0x8, addend: 0x0, symName: __ZNSt3__117__compressed_pairIPP4trieIiERNS_9allocatorIS3_EEEC2B8ue170006IDnS7_EEOT_OT0_, symObjAddr: 0x1F790, symBinAddr: 0x100021C1C, symSize: 0x48 }
  - { offsetInCU: 0x315A1, offset: 0x315A1, size: 0x8, addend: 0x0, symName: __ZNSt3__122__compressed_pair_elemIRNS_9allocatorIP4trieIiEEELi1ELb0EEC2B8ue170006IS6_vEEOT_, symObjAddr: 0x1F7D8, symBinAddr: 0x100021C64, symSize: 0x20 }
  - { offsetInCU: 0x315E3, offset: 0x315E3, size: 0x8, addend: 0x0, symName: __ZNSt3__19allocatorIP4trieIiEE8allocateB8ue170006Em, symObjAddr: 0x1F7F8, symBinAddr: 0x100021C84, symSize: 0x58 }
  - { offsetInCU: 0x31617, offset: 0x31617, size: 0x8, addend: 0x0, symName: __ZNSt3__117__compressed_pairIPP4trieIiERNS_9allocatorIS3_EEE6secondB8ue170006Ev, symObjAddr: 0x1F850, symBinAddr: 0x100021CDC, symSize: 0x28 }
  - { offsetInCU: 0x3163D, offset: 0x3163D, size: 0x8, addend: 0x0, symName: __ZNSt3__122__compressed_pair_elemIRNS_9allocatorIP4trieIiEEELi1ELb0EE5__getB8ue170006Ev, symObjAddr: 0x1F878, symBinAddr: 0x100021D04, symSize: 0x18 }
  - { offsetInCU: 0x31663, offset: 0x31663, size: 0x8, addend: 0x0, symName: __ZNSt3__117__compressed_pairIPP4trieIiERNS_9allocatorIS3_EEE5firstB8ue170006Ev, symObjAddr: 0x1F890, symBinAddr: 0x100021D1C, symSize: 0x24 }
  - { offsetInCU: 0x31689, offset: 0x31689, size: 0x8, addend: 0x0, symName: __ZNSt3__116reverse_iteratorIPP4trieIiEEC1B8ue170006ES4_, symObjAddr: 0x1F92C, symBinAddr: 0x100021DB8, symSize: 0x34 }
  - { offsetInCU: 0x316C1, offset: 0x316C1, size: 0x8, addend: 0x0, symName: __ZNKSt3__116reverse_iteratorIPP4trieIiEE4baseB8ue170006Ev, symObjAddr: 0x1F960, symBinAddr: 0x100021DEC, symSize: 0x18 }
  - { offsetInCU: 0x316E7, offset: 0x316E7, size: 0x8, addend: 0x0, symName: __ZNKSt3__16vectorIP4trieIiENS_9allocatorIS3_EEE14__annotate_newB8ue170006Em, symObjAddr: 0x1F9B4, symBinAddr: 0x100021E40, symSize: 0xAC }
  - { offsetInCU: 0x31738, offset: 0x31738, size: 0x8, addend: 0x0, symName: __ZNKSt3__111__move_loopINS_17_ClassicAlgPolicyEEclB8ue170006INS_16reverse_iteratorIPP4trieIiEEES9_S9_EENS_4pairIT_T1_EESB_T0_SC_, symObjAddr: 0x1FD50, symBinAddr: 0x1000221DC, symSize: 0xA0 }
  - { offsetInCU: 0x317A3, offset: 0x317A3, size: 0x8, addend: 0x0, symName: __ZNSt3__18_IterOpsINS_17_ClassicAlgPolicyEE11__iter_moveB8ue170006IRNS_16reverse_iteratorIPP4trieIiEEEEENS_9enable_ifIXsr12is_referenceIDTdeclsr3stdE7declvalIRT_EEEEE5valueEDTclsr3stdE4movedeclsr3stdE7declvalISD_EEEEE4typeEOSC_, symObjAddr: 0x1FF84, symBinAddr: 0x100022410, symSize: 0x28 }
  - { offsetInCU: 0x317CF, offset: 0x317CF, size: 0x8, addend: 0x0, symName: __ZNKSt3__116reverse_iteratorIPP4trieIiEEdeB8ue170006Ev, symObjAddr: 0x1FFAC, symBinAddr: 0x100022438, symSize: 0x28 }
  - { offsetInCU: 0x31803, offset: 0x31803, size: 0x8, addend: 0x0, symName: __ZNSt3__116reverse_iteratorIPP4trieIiEEppB8ue170006Ev, symObjAddr: 0x1FFD4, symBinAddr: 0x100022460, symSize: 0x20 }
  - { offsetInCU: 0x31829, offset: 0x31829, size: 0x8, addend: 0x0, symName: __ZNSt3__18_IterOpsINS_17_ClassicAlgPolicyEE25__validate_iter_referenceB8ue170006IRNS_16reverse_iteratorIPP4trieIiEEEEEvv, symObjAddr: 0x1FFF4, symBinAddr: 0x100022480, symSize: 0x4 }
  - { offsetInCU: 0x31847, offset: 0x31847, size: 0x8, addend: 0x0, symName: __ZNSt3__118__unwrap_iter_implINS_16reverse_iteratorIPP4trieIiEEELb0EE8__unwrapB8ue170006ES6_, symObjAddr: 0x1FFF8, symBinAddr: 0x100022484, symSize: 0x24 }
  - { offsetInCU: 0x31870, offset: 0x31870, size: 0x8, addend: 0x0, symName: __ZNSt3__14pairINS_16reverse_iteratorIPP4trieIiEEES6_EC1B8ue170006IS6_S6_LPv0EEEOT_OT0_, symObjAddr: 0x2001C, symBinAddr: 0x1000224A8, symSize: 0x3C }
  - { offsetInCU: 0x318CE, offset: 0x318CE, size: 0x8, addend: 0x0, symName: __ZNSt3__14pairINS_16reverse_iteratorIPP4trieIiEEES6_EC2B8ue170006IS6_S6_LPv0EEEOT_OT0_, symObjAddr: 0x20058, symBinAddr: 0x1000224E4, symSize: 0x34 }
  - { offsetInCU: 0x3192C, offset: 0x3192C, size: 0x8, addend: 0x0, symName: __ZNSt3__118__unwrap_iter_implINS_16reverse_iteratorIPP4trieIiEEELb0EE8__rewrapB8ue170006ES6_S6_, symObjAddr: 0x2008C, symBinAddr: 0x100022518, symSize: 0x2C }
  - { offsetInCU: 0x31959, offset: 0x31959, size: 0x8, addend: 0x0, symName: __ZNSt3__116reverse_iteratorIPP4trieIiEEC2B8ue170006ES4_, symObjAddr: 0x200B8, symBinAddr: 0x100022544, symSize: 0x28 }
  - { offsetInCU: 0x31991, offset: 0x31991, size: 0x8, addend: 0x0, symName: __ZNSt3__114__split_bufferIP4trieIiERNS_9allocatorIS3_EEED2Ev, symObjAddr: 0x200E0, symBinAddr: 0x10002256C, symSize: 0x8C }
  - { offsetInCU: 0x319BD, offset: 0x319BD, size: 0x8, addend: 0x0, symName: __ZNSt3__114__split_bufferIP4trieIiERNS_9allocatorIS3_EEE5clearB8ue170006Ev, symObjAddr: 0x2016C, symBinAddr: 0x1000225F8, symSize: 0x28 }
  - { offsetInCU: 0x319E3, offset: 0x319E3, size: 0x8, addend: 0x0, symName: __ZNKSt3__114__split_bufferIP4trieIiERNS_9allocatorIS3_EEE8capacityB8ue170006Ev, symObjAddr: 0x20194, symBinAddr: 0x100022620, symSize: 0x40 }
  - { offsetInCU: 0x31A09, offset: 0x31A09, size: 0x8, addend: 0x0, symName: __ZNSt3__114__split_bufferIP4trieIiERNS_9allocatorIS3_EEE17__destruct_at_endB8ue170006EPS3_, symObjAddr: 0x201D4, symBinAddr: 0x100022660, symSize: 0x2C }
  - { offsetInCU: 0x31A3D, offset: 0x31A3D, size: 0x8, addend: 0x0, symName: __ZNSt3__114__split_bufferIP4trieIiERNS_9allocatorIS3_EEE17__destruct_at_endB8ue170006EPS3_NS_17integral_constantIbLb0EEE, symObjAddr: 0x20200, symBinAddr: 0x10002268C, symSize: 0x80 }
  - { offsetInCU: 0x31A7D, offset: 0x31A7D, size: 0x8, addend: 0x0, symName: __ZNKSt3__114__split_bufferIP4trieIiERNS_9allocatorIS3_EEE9__end_capB8ue170006Ev, symObjAddr: 0x20280, symBinAddr: 0x10002270C, symSize: 0x28 }
  - { offsetInCU: 0x31AA3, offset: 0x31AA3, size: 0x8, addend: 0x0, symName: __ZNKSt3__117__compressed_pairIPP4trieIiERNS_9allocatorIS3_EEE5firstB8ue170006Ev, symObjAddr: 0x202A8, symBinAddr: 0x100022734, symSize: 0x24 }
  - { offsetInCU: 0x31AC9, offset: 0x31AC9, size: 0x8, addend: 0x0, symName: __ZNSt3__16vectorIP4trieIiENS_9allocatorIS3_EEE12__move_rangeEPS3_S7_S7_, symObjAddr: 0x20314, symBinAddr: 0x1000227A0, symSize: 0x12C }
  - { offsetInCU: 0x31B85, offset: 0x31B85, size: 0x8, addend: 0x0, symName: __ZNSt3__114pointer_traitsIPKP4trieIiEE10pointer_toB8ue170006ERS4_, symObjAddr: 0x20440, symBinAddr: 0x1000228CC, symSize: 0x14 }
  - { offsetInCU: 0x31BA8, offset: 0x31BA8, size: 0x8, addend: 0x0, symName: __ZNSt3__114__split_bufferIP4trieIiERNS_9allocatorIS3_EEE9push_backB8ue170006ERKS3_, symObjAddr: 0x20454, symBinAddr: 0x1000228E0, symSize: 0x260 }
  - { offsetInCU: 0x31C20, offset: 0x31C20, size: 0x8, addend: 0x0, symName: __ZNKSt3__111__wrap_iterIPKP4trieIiEE4baseB8ue170006Ev, symObjAddr: 0x20800, symBinAddr: 0x100022C8C, symSize: 0x18 }
  - { offsetInCU: 0x31C46, offset: 0x31C46, size: 0x8, addend: 0x0, symName: __ZNSt3__116allocator_traitsINS_9allocatorIP4trieIiEEEE9constructB8ue170006IS4_JS4_EvEEvRS5_PT_DpOT0_, symObjAddr: 0x20818, symBinAddr: 0x100022CA4, symSize: 0x34 }
  - { offsetInCU: 0x31C9D, offset: 0x31C9D, size: 0x8, addend: 0x0, symName: __ZNSt3__19allocatorIP4trieIiEE9constructB8ue170006IS3_JS3_EEEvPT_DpOT0_, symObjAddr: 0x2088C, symBinAddr: 0x100022D18, symSize: 0x28 }
  - { offsetInCU: 0x31D0F, offset: 0x31D0F, size: 0x8, addend: 0x0, symName: __ZNKSt3__123__move_backward_trivialclB8ue170006IP4trieIiES4_Li0EEENS_4pairIPT_PT0_EES7_S7_S9_, symObjAddr: 0x20A50, symBinAddr: 0x100022EDC, symSize: 0x48 }
  - { offsetInCU: 0x31D77, offset: 0x31D77, size: 0x8, addend: 0x0, symName: __ZNSt3__14pairIPP4trieIiES4_EC1B8ue170006IRS4_S7_LPv0EEEOT_OT0_, symObjAddr: 0x20C88, symBinAddr: 0x100023114, symSize: 0x3C }
  - { offsetInCU: 0x31DD5, offset: 0x31DD5, size: 0x8, addend: 0x0, symName: __ZNSt3__14pairIPP4trieIiES4_EC2B8ue170006IRS4_S7_LPv0EEEOT_OT0_, symObjAddr: 0x20CC4, symBinAddr: 0x100023150, symSize: 0x34 }
  - { offsetInCU: 0x31E33, offset: 0x31E33, size: 0x8, addend: 0x0, symName: __ZNSt3__118__unwrap_iter_implIPP4trieIiELb1EE8__unwrapB8ue170006ES4_, symObjAddr: 0x20CF8, symBinAddr: 0x100023184, symSize: 0x24 }
  - { offsetInCU: 0x31E5C, offset: 0x31E5C, size: 0x8, addend: 0x0, symName: __ZNSt3__14pairIPP4trieIiES4_EC1B8ue170006IS4_S4_LPv0EEEOT_OT0_, symObjAddr: 0x20D1C, symBinAddr: 0x1000231A8, symSize: 0x3C }
  - { offsetInCU: 0x31EBA, offset: 0x31EBA, size: 0x8, addend: 0x0, symName: __ZNSt3__14pairIPP4trieIiES4_EC2B8ue170006IS4_S4_LPv0EEEOT_OT0_, symObjAddr: 0x20D58, symBinAddr: 0x1000231E4, symSize: 0x34 }
  - { offsetInCU: 0x31F18, offset: 0x31F18, size: 0x8, addend: 0x0, symName: __ZNSt3__118__unwrap_iter_implIPP4trieIiELb1EE8__rewrapB8ue170006ES4_S4_, symObjAddr: 0x20D8C, symBinAddr: 0x100023218, symSize: 0x50 }
  - { offsetInCU: 0x31F49, offset: 0x31F49, size: 0x8, addend: 0x0, symName: __ZNSt3__114__split_bufferIP4trieIiERNS_9allocatorIS3_EEE18__construct_at_endINS_13move_iteratorIPS3_EEEENS_9enable_ifIXsr31__has_forward_iterator_categoryIT_EE5valueEvE4typeESD_SD_, symObjAddr: 0x20E1C, symBinAddr: 0x1000232A8, symSize: 0x60 }
  - { offsetInCU: 0x31F96, offset: 0x31F96, size: 0x8, addend: 0x0, symName: __ZNSt3__113move_iteratorIPP4trieIiEEC1B8ue170006ES4_, symObjAddr: 0x20E7C, symBinAddr: 0x100023308, symSize: 0x34 }
  - { offsetInCU: 0x31FCE, offset: 0x31FCE, size: 0x8, addend: 0x0, symName: __ZNKSt3__114__move_trivialclB8ue170006IP4trieIiES4_Li0EEENS_4pairIPT_PT0_EES7_S7_S9_, symObjAddr: 0x20FEC, symBinAddr: 0x100023478, symSize: 0x48 }
  - { offsetInCU: 0x32036, offset: 0x32036, size: 0x8, addend: 0x0, symName: __ZNSt3__14pairIPP4trieIiES4_EC1B8ue170006IRS4_S4_LPv0EEEOT_OT0_, symObjAddr: 0x210EC, symBinAddr: 0x100023578, symSize: 0x3C }
  - { offsetInCU: 0x32094, offset: 0x32094, size: 0x8, addend: 0x0, symName: __ZNSt3__14pairIPP4trieIiES4_EC2B8ue170006IRS4_S4_LPv0EEEOT_OT0_, symObjAddr: 0x21128, symBinAddr: 0x1000235B4, symSize: 0x34 }
  - { offsetInCU: 0x320F2, offset: 0x320F2, size: 0x8, addend: 0x0, symName: __ZNSt3__114__split_bufferIP4trieIiERNS_9allocatorIS3_EEE28__construct_at_end_with_sizeINS_13move_iteratorIPS3_EEEEvT_m, symObjAddr: 0x2115C, symBinAddr: 0x1000235E8, symSize: 0xDC }
  - { offsetInCU: 0x32158, offset: 0x32158, size: 0x8, addend: 0x0, symName: __ZNSt3__114__split_bufferIP4trieIiERNS_9allocatorIS3_EEE21_ConstructTransactionC1B8ue170006EPPS3_m, symObjAddr: 0x21274, symBinAddr: 0x100023700, symSize: 0x3C }
  - { offsetInCU: 0x3219E, offset: 0x3219E, size: 0x8, addend: 0x0, symName: __ZNKSt3__113move_iteratorIPP4trieIiEEdeB8ue170006Ev, symObjAddr: 0x212B0, symBinAddr: 0x10002373C, symSize: 0x18 }
  - { offsetInCU: 0x321C4, offset: 0x321C4, size: 0x8, addend: 0x0, symName: __ZNSt3__113move_iteratorIPP4trieIiEEppB8ue170006Ev, symObjAddr: 0x212C8, symBinAddr: 0x100023754, symSize: 0x20 }
  - { offsetInCU: 0x321EA, offset: 0x321EA, size: 0x8, addend: 0x0, symName: __ZNSt3__114__split_bufferIP4trieIiERNS_9allocatorIS3_EEE21_ConstructTransactionD1B8ue170006Ev, symObjAddr: 0x212E8, symBinAddr: 0x100023774, symSize: 0x2C }
  - { offsetInCU: 0x32214, offset: 0x32214, size: 0x8, addend: 0x0, symName: __ZNSt3__114__split_bufferIP4trieIiERNS_9allocatorIS3_EEE21_ConstructTransactionC2B8ue170006EPPS3_m, symObjAddr: 0x21314, symBinAddr: 0x1000237A0, symSize: 0x44 }
  - { offsetInCU: 0x3225A, offset: 0x3225A, size: 0x8, addend: 0x0, symName: __ZNSt3__114__split_bufferIP4trieIiERNS_9allocatorIS3_EEE21_ConstructTransactionD2B8ue170006Ev, symObjAddr: 0x21358, symBinAddr: 0x1000237E4, symSize: 0x20 }
  - { offsetInCU: 0x32284, offset: 0x32284, size: 0x8, addend: 0x0, symName: __ZNKSt3__113move_iteratorIPP4trieIiEE4baseB8ue170006Ev, symObjAddr: 0x213F0, symBinAddr: 0x10002387C, symSize: 0x18 }
  - { offsetInCU: 0x322AA, offset: 0x322AA, size: 0x8, addend: 0x0, symName: __ZNSt3__113move_iteratorIPP4trieIiEEC2B8ue170006ES4_, symObjAddr: 0x21408, symBinAddr: 0x100023894, symSize: 0x20 }
  - { offsetInCU: 0x322E2, offset: 0x322E2, size: 0x8, addend: 0x0, symName: __ZNSt3__111__wrap_iterIPP4trieIiEEpLB8ue170006El, symObjAddr: 0x21460, symBinAddr: 0x1000238EC, symSize: 0x28 }
  - { offsetInCU: 0x32316, offset: 0x32316, size: 0x8, addend: 0x0, symName: __ZNSt3__111__wrap_iterIPKP4trieIiEEC2B8ue170006IPS3_EERKNS0_IT_EEPNS_9enable_ifIXsr14is_convertibleIS9_S5_EE5valueEvE4typeE, symObjAddr: 0x21488, symBinAddr: 0x100023914, symSize: 0x40 }
  - { offsetInCU: 0x32361, offset: 0x32361, size: 0x8, addend: 0x0, symName: __ZN4trieIiED2Ev, symObjAddr: 0x214C8, symBinAddr: 0x100023954, symSize: 0x90 }
  - { offsetInCU: 0x3238D, offset: 0x3238D, size: 0x8, addend: 0x0, symName: __ZN4trieIiE12get_childrenEv, symObjAddr: 0x21558, symBinAddr: 0x1000239E4, symSize: 0x18 }
  - { offsetInCU: 0x323B5, offset: 0x323B5, size: 0x8, addend: 0x0, symName: __ZNK3bagI4trieIiEE7getSizeEv, symObjAddr: 0x21570, symBinAddr: 0x1000239FC, symSize: 0x24 }
  - { offsetInCU: 0x323DB, offset: 0x323DB, size: 0x8, addend: 0x0, symName: __ZN4trieIiE10get_parentEv, symObjAddr: 0x21594, symBinAddr: 0x100023A20, symSize: 0x18 }
  - { offsetInCU: 0x32403, offset: 0x32403, size: 0x8, addend: 0x0, symName: __ZNK3bagI4trieIiEE3getEi, symObjAddr: 0x215AC, symBinAddr: 0x100023A38, symSize: 0x30 }
  - { offsetInCU: 0x32437, offset: 0x32437, size: 0x8, addend: 0x0, symName: __ZN3bagI4trieIiEE7reorderEv, symObjAddr: 0x215DC, symBinAddr: 0x100023A68, symSize: 0x48 }
  - { offsetInCU: 0x32481, offset: 0x32481, size: 0x8, addend: 0x0, symName: __ZN3bagI4trieIiEE5beginEv, symObjAddr: 0x21624, symBinAddr: 0x100023AB0, symSize: 0xEC }
  - { offsetInCU: 0x324A7, offset: 0x324A7, size: 0x8, addend: 0x0, symName: __ZNK3bagI4trieIiEE17children_iteratorneERKS3_, symObjAddr: 0x21710, symBinAddr: 0x100023B9C, symSize: 0x34 }
  - { offsetInCU: 0x324DB, offset: 0x324DB, size: 0x8, addend: 0x0, symName: __ZN3bagI4trieIiEE3endEv, symObjAddr: 0x21744, symBinAddr: 0x100023BD0, symSize: 0xA8 }
  - { offsetInCU: 0x32511, offset: 0x32511, size: 0x8, addend: 0x0, symName: __ZN3bagI4trieIiEE17children_iteratorD1Ev, symObjAddr: 0x217EC, symBinAddr: 0x100023C78, symSize: 0x2C }
  - { offsetInCU: 0x3253D, offset: 0x3253D, size: 0x8, addend: 0x0, symName: __ZNK3bagI4trieIiEE17children_iteratorptEv, symObjAddr: 0x21818, symBinAddr: 0x100023CA4, symSize: 0x18 }
  - { offsetInCU: 0x32563, offset: 0x32563, size: 0x8, addend: 0x0, symName: __ZN3bagI4trieIiEE17children_iteratorppEi, symObjAddr: 0x21830, symBinAddr: 0x100023CBC, symSize: 0x158 }
  - { offsetInCU: 0x325C8, offset: 0x325C8, size: 0x8, addend: 0x0, symName: __ZZN3bagI4trieIiEE7reorderEvENKUlPKS1_S4_E_clES4_S4_, symObjAddr: 0x21F84, symBinAddr: 0x100024410, symSize: 0x50 }
  - { offsetInCU: 0x3260E, offset: 0x3260E, size: 0x8, addend: 0x0, symName: __ZNSt3__18_IterOpsINS_17_ClassicAlgPolicyEE9iter_swapB8ue170006IRPP4trieIiES8_EEvOT_OT0_, symObjAddr: 0x21FD4, symBinAddr: 0x100024460, symSize: 0x34 }
  - { offsetInCU: 0x32651, offset: 0x32651, size: 0x8, addend: 0x0, symName: __ZNSt3__18_IterOpsINS_17_ClassicAlgPolicyEE9iter_swapB8ue170006IRPP4trieIiES7_EEvOT_OT0_, symObjAddr: 0x2255C, symBinAddr: 0x1000249E8, symSize: 0x34 }
  - { offsetInCU: 0x32694, offset: 0x32694, size: 0x8, addend: 0x0, symName: __ZNSt3__18_IterOpsINS_17_ClassicAlgPolicyEE11__iter_moveB8ue170006IRPP4trieIiEEENS_9enable_ifIXsr12is_referenceIDTdeclsr3stdE7declvalIRT_EEEEE5valueEDTclsr3stdE4movedeclsr3stdE7declvalISB_EEEEE4typeEOSA_, symObjAddr: 0x23280, symBinAddr: 0x10002570C, symSize: 0x28 }
  - { offsetInCU: 0x326C0, offset: 0x326C0, size: 0x8, addend: 0x0, symName: __ZNSt3__18_IterOpsINS_17_ClassicAlgPolicyEE25__validate_iter_referenceB8ue170006IRPP4trieIiEEEvv, symObjAddr: 0x232A8, symBinAddr: 0x100025734, symSize: 0x4 }
  - { offsetInCU: 0x326DE, offset: 0x326DE, size: 0x8, addend: 0x0, symName: __ZNSt3__18_IterOpsINS_17_ClassicAlgPolicyEE4nextB8ue170006IPP4trieIiEEET_S8_S8_, symObjAddr: 0x232AC, symBinAddr: 0x100025738, symSize: 0x18 }
  - { offsetInCU: 0x32714, offset: 0x32714, size: 0x8, addend: 0x0, symName: __ZNSt3__18_IterOpsINS_17_ClassicAlgPolicyEE9iter_swapB8ue170006IPP4trieIiES7_EEvOT_OT0_, symObjAddr: 0x241F8, symBinAddr: 0x100026684, symSize: 0x34 }
  - { offsetInCU: 0x32773, offset: 0x32773, size: 0x8, addend: 0x0, symName: __ZNSt3__14pairIPP4trieIiEbEC1B8ue170006IRS4_RbLPv0EEEOT_OT0_, symObjAddr: 0x2422C, symBinAddr: 0x1000266B8, symSize: 0x3C }
  - { offsetInCU: 0x327D1, offset: 0x327D1, size: 0x8, addend: 0x0, symName: __ZNSt3__14pairIPP4trieIiEbEC2B8ue170006IRS4_RbLPv0EEEOT_OT0_, symObjAddr: 0x24268, symBinAddr: 0x1000266F4, symSize: 0x38 }
  - { offsetInCU: 0x3282F, offset: 0x3282F, size: 0x8, addend: 0x0, symName: __ZNSt3__118__unwrap_iter_implINS_11__wrap_iterIPP4trieIiEEELb1EE8__unwrapB8ue170006ES6_, symObjAddr: 0x242A0, symBinAddr: 0x10002672C, symSize: 0x28 }
  - { offsetInCU: 0x32857, offset: 0x32857, size: 0x8, addend: 0x0, symName: __ZNSt3__119__to_address_helperINS_11__wrap_iterIPP4trieIiEEEvE6__callB8ue170006ERKS6_, symObjAddr: 0x242EC, symBinAddr: 0x100026778, symSize: 0x30 }
  - { offsetInCU: 0x3287A, offset: 0x3287A, size: 0x8, addend: 0x0, symName: __ZNSt3__114pointer_traitsINS_11__wrap_iterIPP4trieIiEEEE10to_addressB8ue170006ES6_, symObjAddr: 0x2431C, symBinAddr: 0x1000267A8, symSize: 0x2C }
  - { offsetInCU: 0x3289D, offset: 0x3289D, size: 0x8, addend: 0x0, symName: __ZNSt3__16vectorIP4trieIiENS_9allocatorIS3_EEEC1ERKS6_, symObjAddr: 0x24348, symBinAddr: 0x1000267D4, symSize: 0x34 }
  - { offsetInCU: 0x328D8, offset: 0x328D8, size: 0x8, addend: 0x0, symName: __ZN3bagI4trieIiEE17children_iteratorC1EPS1_NSt3__16vectorIS4_NS5_9allocatorIS4_EEEE, symObjAddr: 0x2437C, symBinAddr: 0x100026808, symSize: 0x3C }
  - { offsetInCU: 0x3291F, offset: 0x3291F, size: 0x8, addend: 0x0, symName: __ZNSt3__16vectorIP4trieIiENS_9allocatorIS3_EEEC2ERKS6_, symObjAddr: 0x243B8, symBinAddr: 0x100026844, symSize: 0x94 }
  - { offsetInCU: 0x3295A, offset: 0x3295A, size: 0x8, addend: 0x0, symName: __ZNSt3__116allocator_traitsINS_9allocatorIP4trieIiEEEE37select_on_container_copy_constructionB8ue170006IS5_vvEES5_RKS5_, symObjAddr: 0x2444C, symBinAddr: 0x1000268D8, symSize: 0x10 }
  - { offsetInCU: 0x3298F, offset: 0x3298F, size: 0x8, addend: 0x0, symName: __ZNSt3__117__compressed_pairIPP4trieIiENS_9allocatorIS3_EEEC1B8ue170006IDnS6_EEOT_OT0_, symObjAddr: 0x2445C, symBinAddr: 0x1000268E8, symSize: 0x3C }
  - { offsetInCU: 0x329E7, offset: 0x329E7, size: 0x8, addend: 0x0, symName: __ZNSt3__16vectorIP4trieIiENS_9allocatorIS3_EEE16__init_with_sizeB8ue170006IPS3_S8_EEvT_T0_m, symObjAddr: 0x24498, symBinAddr: 0x100026924, symSize: 0xB8 }
  - { offsetInCU: 0x32A5B, offset: 0x32A5B, size: 0x8, addend: 0x0, symName: __ZNSt3__117__compressed_pairIPP4trieIiENS_9allocatorIS3_EEEC2B8ue170006IDnS6_EEOT_OT0_, symObjAddr: 0x24550, symBinAddr: 0x1000269DC, symSize: 0x44 }
  - { offsetInCU: 0x32AB3, offset: 0x32AB3, size: 0x8, addend: 0x0, symName: __ZNSt3__122__compressed_pair_elemINS_9allocatorIP4trieIiEEELi1ELb1EEC2B8ue170006IS5_vEEOT_, symObjAddr: 0x24594, symBinAddr: 0x100026A20, symSize: 0x18 }
  - { offsetInCU: 0x32AF5, offset: 0x32AF5, size: 0x8, addend: 0x0, symName: __ZNSt3__16vectorIP4trieIiENS_9allocatorIS3_EEE11__vallocateB8ue170006Em, symObjAddr: 0x245EC, symBinAddr: 0x100026A78, symSize: 0xAC }
  - { offsetInCU: 0x32B39, offset: 0x32B39, size: 0x8, addend: 0x0, symName: __ZNSt3__16vectorIP4trieIiENS_9allocatorIS3_EEE18__construct_at_endIPS3_S8_EEvT_T0_m, symObjAddr: 0x24698, symBinAddr: 0x100026B24, symSize: 0x8C }
  - { offsetInCU: 0x32BAF, offset: 0x32BAF, size: 0x8, addend: 0x0, symName: __ZNSt3__128__exception_guard_exceptionsINS_6vectorIP4trieIiENS_9allocatorIS4_EEE16__destroy_vectorEE10__completeB8ue170006Ev, symObjAddr: 0x24724, symBinAddr: 0x100026BB0, symSize: 0x1C }
  - { offsetInCU: 0x32BD5, offset: 0x32BD5, size: 0x8, addend: 0x0, symName: __ZNSt3__128__exception_guard_exceptionsINS_6vectorIP4trieIiENS_9allocatorIS4_EEE16__destroy_vectorEED1B8ue170006Ev, symObjAddr: 0x24740, symBinAddr: 0x100026BCC, symSize: 0x2C }
  - { offsetInCU: 0x32BFF, offset: 0x32BFF, size: 0x8, addend: 0x0, symName: __ZNSt3__128__exception_guard_exceptionsINS_6vectorIP4trieIiENS_9allocatorIS4_EEE16__destroy_vectorEEC1B8ue170006ES8_, symObjAddr: 0x2476C, symBinAddr: 0x100026BF8, symSize: 0x34 }
  - { offsetInCU: 0x32C37, offset: 0x32C37, size: 0x8, addend: 0x0, symName: __ZNSt3__128__exception_guard_exceptionsINS_6vectorIP4trieIiENS_9allocatorIS4_EEE16__destroy_vectorEEC2B8ue170006ES8_, symObjAddr: 0x247A0, symBinAddr: 0x100026C2C, symSize: 0x24 }
  - { offsetInCU: 0x32C6F, offset: 0x32C6F, size: 0x8, addend: 0x0, symName: __ZNKSt3__114__copy_trivialclB8ue170006IP4trieIiES4_Li0EEENS_4pairIPT_PT0_EES7_S7_S9_, symObjAddr: 0x249F8, symBinAddr: 0x100026E84, symSize: 0x48 }
  - { offsetInCU: 0x32CD7, offset: 0x32CD7, size: 0x8, addend: 0x0, symName: __ZNSt3__128__exception_guard_exceptionsINS_6vectorIP4trieIiENS_9allocatorIS4_EEE16__destroy_vectorEED2B8ue170006Ev, symObjAddr: 0x24A40, symBinAddr: 0x100026ECC, symSize: 0x48 }
  - { offsetInCU: 0x32D01, offset: 0x32D01, size: 0x8, addend: 0x0, symName: __ZN3bagI4trieIiEE17children_iteratorC2EPS1_NSt3__16vectorIS4_NS5_9allocatorIS4_EEEE, symObjAddr: 0x24A88, symBinAddr: 0x100026F14, symSize: 0x80 }
  - { offsetInCU: 0x32D48, offset: 0x32D48, size: 0x8, addend: 0x0, symName: __ZNSt3__16vectorIP4trieIiENS_9allocatorIS3_EEEaSB8ue170006ERKS6_, symObjAddr: 0x24B08, symBinAddr: 0x100026F94, symSize: 0x68 }
  - { offsetInCU: 0x32D7F, offset: 0x32D7F, size: 0x8, addend: 0x0, symName: __ZNSt3__16vectorIP4trieIiENS_9allocatorIS3_EEE19__copy_assign_allocB8ue170006ERKS6_, symObjAddr: 0x24B70, symBinAddr: 0x100026FFC, symSize: 0x2C }
  - { offsetInCU: 0x32DB4, offset: 0x32DB4, size: 0x8, addend: 0x0, symName: __ZNSt3__16vectorIP4trieIiENS_9allocatorIS3_EEE6assignIPS3_Li0EEEvT_S9_, symObjAddr: 0x24B9C, symBinAddr: 0x100027028, symSize: 0x5C }
  - { offsetInCU: 0x32E09, offset: 0x32E09, size: 0x8, addend: 0x0, symName: __ZNSt3__16vectorIP4trieIiENS_9allocatorIS3_EEE19__copy_assign_allocB8ue170006ERKS6_NS_17integral_constantIbLb0EEE, symObjAddr: 0x24BF8, symBinAddr: 0x100027084, symSize: 0x14 }
  - { offsetInCU: 0x32E45, offset: 0x32E45, size: 0x8, addend: 0x0, symName: __ZNSt3__16vectorIP4trieIiENS_9allocatorIS3_EEE18__assign_with_sizeB8ue170006IPS3_S8_EEvT_T0_l, symObjAddr: 0x24C0C, symBinAddr: 0x100027098, symSize: 0x164 }
  - { offsetInCU: 0x32EF5, offset: 0x32EF5, size: 0x8, addend: 0x0, symName: __ZNSt3__16vectorIP4trieIiENS_9allocatorIS3_EEE17__destruct_at_endB8ue170006EPS3_, symObjAddr: 0x24DD0, symBinAddr: 0x10002725C, symSize: 0x4C }
  - { offsetInCU: 0x32F39, offset: 0x32F39, size: 0x8, addend: 0x0, symName: __ZNSt3__16vectorIP4trieIiENS_9allocatorIS3_EEE13__vdeallocateEv, symObjAddr: 0x24E1C, symBinAddr: 0x1000272A8, symSize: 0x94 }
  - { offsetInCU: 0x32F61, offset: 0x32F61, size: 0x8, addend: 0x0, symName: __ZNK3bagI4trieIiEE17children_iteratoreqERKS3_, symObjAddr: 0x24F38, symBinAddr: 0x1000273C4, symSize: 0x64 }
  - { offsetInCU: 0x32F95, offset: 0x32F95, size: 0x8, addend: 0x0, symName: __ZN3bagI4trieIiEE17children_iteratorD2Ev, symObjAddr: 0x24F9C, symBinAddr: 0x100027428, symSize: 0x30 }
  - { offsetInCU: 0x32FC1, offset: 0x32FC1, size: 0x8, addend: 0x0, symName: __ZN3bagI4trieIiEE17children_iteratorC1ERKS3_, symObjAddr: 0x24FCC, symBinAddr: 0x100027458, symSize: 0x34 }
  - { offsetInCU: 0x32FF6, offset: 0x32FF6, size: 0x8, addend: 0x0, symName: __ZN3bagI4trieIiEE17children_iteratorC2ERKS3_, symObjAddr: 0x25000, symBinAddr: 0x10002748C, symSize: 0x48 }
  - { offsetInCU: 0x3302B, offset: 0x3302B, size: 0x8, addend: 0x0, symName: __ZNK3bagI4trieIiEEeqERKS2_, symObjAddr: 0x25048, symBinAddr: 0x1000274D4, symSize: 0x21C }
  - { offsetInCU: 0x3307B, offset: 0x3307B, size: 0x8, addend: 0x0, symName: __ZNK4trieIiE10get_weightEv, symObjAddr: 0x25264, symBinAddr: 0x1000276F0, symSize: 0x5C }
  - { offsetInCU: 0x330A3, offset: 0x330A3, size: 0x8, addend: 0x0, symName: __ZNK3bagI4trieIiEEneERKS2_, symObjAddr: 0x252C0, symBinAddr: 0x10002774C, symSize: 0x34 }
  - { offsetInCU: 0x330D7, offset: 0x330D7, size: 0x8, addend: 0x0, symName: __ZN3bagI4trieIiEEaSEOS2_, symObjAddr: 0x252F4, symBinAddr: 0x100027780, symSize: 0x114 }
  - { offsetInCU: 0x33143, offset: 0x33143, size: 0x8, addend: 0x0, symName: __ZN3bagI4trieIcEEaSEOS2_, symObjAddr: 0x25408, symBinAddr: 0x100027894, symSize: 0x114 }
  - { offsetInCU: 0x331AE, offset: 0x331AE, size: 0x8, addend: 0x0, symName: __Z5mergeIcEvR4trieIT_ES3_, symObjAddr: 0x2551C, symBinAddr: 0x1000279A8, symSize: 0x33C }
  - { offsetInCU: 0x33268, offset: 0x33268, size: 0x8, addend: 0x0, symName: __ZNK3bagI4trieIcEE17children_iteratorneERKS3_, symObjAddr: 0x25858, symBinAddr: 0x100027CE4, symSize: 0x34 }
  - { offsetInCU: 0x3329B, offset: 0x3329B, size: 0x8, addend: 0x0, symName: __Z9printTrieIcEvRNSt3__113basic_ostreamIcNS0_11char_traitsIcEEEERK4trieIT_E, symObjAddr: 0x2588C, symBinAddr: 0x100027D18, symSize: 0x274 }
  - { offsetInCU: 0x33309, offset: 0x33309, size: 0x8, addend: 0x0, symName: __ZNK3bagI4trieIcEE23const_children_iteratorneERKS3_, symObjAddr: 0x25B48, symBinAddr: 0x100027FD4, symSize: 0x34 }
...
